(dp0
I0
Va
p1
sI1
Vwoman
p2
sI2
Vgoes
p3
sI3
Vunder
p4
sI4
Vhorse
p5
sI5
Vcrawls
p6
sI6
Vand
p7
sI7
Vgets
p8
sI8
Vsurprise
p9
sI9
Vgirl
p10
sI10
Vis
p11
sI11
Vjutting
p12
sI12
Vout
p13
sI13
Vher
p14
sI14
Vhead
p15
sI15
Vfrom
p16
sI16
Vbetween
p17
sI17
Vthe
p18
sI18
Vback
p19
sI19
Vlegs
p20
sI20
Vof
p21
sI21
Vwho
p22
sI22
Vshits
p23
sI23
Von
p24
sI24
Vdefecated
p25
sI25
Vwoman's
p26
sI26
Vexcretes
p27
sI27
Vas
p28
sI28
Vshe
p29
sI29
Vin
p30
sI30
Vfore
p31
sI31
Vanf
p32
sI32
Vhind
p33
sI33
Vsticks
p34
sI34
Vdefecating
p35
sI35
Vpoops
p36
sI36
Vlady
p37
sI37
Vwas
p38
sI38
Vpooped
p39
sI39
Vbecause
p40
sI40
Vhorse's
p41
sI41
Vtail
p42
sI42
Vend
p43
sI43
Vwhen
p44
sI44
Vhorses
p45
sI45
Vrear
p46
sI46
Vdefecates
p47
sI47
Vbehind
p48
sI48
Vunderneath
p49
sI49
Vcrawling
p50
sI50
Vgetting
p51
sI51
Vby
p52
sI52
Vwalking
p53
sI53
Vit
p54
sI54
Vwent
p55
sI55
Vhim
p56
sI56
Vman
p57
sI57
Vslicing
p58
sI58
Vbutter
p59
sI59
Vinto
p60
sI60
Vbowl
p61
sI61
Vcut
p62
sI62
Vup
p63
sI63
Vpan
p64
sI64
Vcutting
p65
sI65
Vmixing
p66
sI66
Vchopping
p67
sI67
Vcontainer
p68
sI68
Vpieces
p69
sI69
Vslices
p70
sI70
Van
p71
sI71
Velectric
p72
sI72
Vmixer
p73
sI73
Vsome
p74
sI74
Vputting
p75
sI75
Vsteel
p76
sI76
Vputs
p77
sI77
Vperson
p78
sI78
Vchunks
p79
sI79
Vfood
p80
sI80
Vprocessor
p81
sI81
Vindividual
p82
sI82
Vcuts
p83
sI83
Vdrops
p84
sI84
Vbeing
p85
sI85
Vput
p86
sI86
Vadded
p87
sI87
Vstand
p88
sI88
Vsomeone
p89
sI89
Vshown
p90
sI90
Vsmall
p91
sI91
Vsquare
p92
sI92
Vobject
p93
sI93
Vadding
p94
sI94
Vpot
p95
sI95
Vraccoon
p96
sI96
Vlike
p97
sI97
Vanimal
p98
sI98
Vhanging
p99
sI99
Vupside
p100
sI100
Vdown
p101
sI101
Vchair
p102
sI102
Veating
p103
sI103
Vsomething
p104
sI104
Vwhite
p105
sI105
Vslow
p106
sI106
Vloris
p107
sI107
Vegg
p108
sI108
Vlory
p109
sI109
Vsloth
p110
sI110
Veats
p111
sI111
Vpotato
p112
sI112
Vmonkey
p113
sI113
Vcage
p114
sI114
Vhung
p115
sI115
Vpiece
p116
sI116
Vbaby
p117
sI117
Vfruit
p118
sI118
Vwhile
p119
sI119
Vlemur
p120
sI120
Vhangs
p121
sI121
Vmammal
p122
sI122
Vtop
p123
sI123
Vpepper
p124
sI124
Vseasoning
p125
sI125
Vtwo
p126
sI126
Vcracked
p127
sI127
Veggs
p128
sI128
Vingredients
p129
sI129
Vraw
p130
sI130
Vspices
p131
sI131
Vvanilla
p132
sI132
Vto
p133
sI133
Vadds
p134
sI134
Vcinnamon
p135
sI135
Vextract
p136
sI136
Vpreparing
p137
sI137
Vmake
p138
sI138
Vfrench
p139
sI139
Vtoast
p140
sI140
Vseasonings
p141
sI141
Vonto
p142
sI142
Vseasoned
p143
sI143
Vcook
p144
sI144
Vextracts
p145
sI145
Vseason
p146
sI146
Vburning
p147
sI147
Vtops
p148
sI148
Vcameras
p149
sI149
Vwith
p150
sI150
Vtorch
p151
sI151
Vblow
p152
sI152
Vtorching
p153
sI153
Vare
p154
sI154
Vsitting
p155
sI155
Vside
p156
sI156
Vone
p157
sI157
Vthem
p158
sI158
Vflames
p159
sI159
Vcamera
p160
sI160
Vheating
p161
sI161
Vblowtorch
p162
sI162
Vtest
p163
sI163
Vtheir
p164
sI164
Vdurability
p165
sI165
Vlit
p166
sI166
Vfire
p167
sI167
Vuses
p168
sI168
Vsetting
p169
sI169
Vspray
p170
sI170
Vclouds
p171
sI171
Vquickly
p172
sI172
Vfloating
p173
sI173
Vpast
p174
sI174
Vbuilding
p175
sI175
Vmoving
p176
sI176
Vacross
p177
sI177
Vsky
p178
sI178
Vhistoric
p179
sI179
Vmove
p180
sI180
Vblue
p181
sI181
Vtext
p182
sI182
Vstreams
p183
sI183
Vshot
p184
sI184
Vbuilding's
p185
sI185
Vroof
p186
sI186
Vchurch
p187
sI187
Vthen
p188
sI188
Vboy
p189
sI189
Vriding
p190
sI190
Vbike
p191
sI191
Vthere
p192
sI192
Voverhead
p193
sI193
Vroofs
p194
sI194
Vrolled
p195
sI195
Vbuildings
p196
sI196
Vtowers
p197
sI197
Vtall
p198
sI198
Vagainst
p199
sI199
Vthrough
p200
sI200
Vabove
p201
sI201
Vroll
p202
sI202
Volder
p203
sI203
Vjewish
p204
sI204
Vslowly
p205
sI205
Vspeaking
p206
sI206
Vbearded
p207
sI207
Vseated
p208
sI208
Voffice
p209
sI209
Vcabin
p210
sI210
Vgiving
p211
sI211
Vhis
p212
sI212
Vopinion
p213
sI213
Vsits
p214
sI214
Vtalks
p215
sI215
Vtowards
p216
sI216
Vtalking
p217
sI217
Voff
p218
sI218
Vbeard
p219
sI219
Vrabbi
p220
sI220
Vreverent
p221
sI221
Velderly
p222
sI222
Vold
p223
sI223
Vspeaks
p224
sI224
Vtalked
p225
sI225
Vpeels
p226
sI226
Vapple
p227
sI227
Vpeeling
p228
sI228
Vremoving
p229
sI229
Vpeel
p230
sI230
Vkitchen
p231
sI231
Vtook
p232
sI232
Vwax
p233
sI233
Vcoating
p234
sI234
Vcheese
p235
sI235
Vvegetables
p236
sI236
Vpeeled
p237
sI237
Vperforming
p238
sI238
Vyoga
p239
sI239
Vdoes
p240
sI240
Vexercises
p241
sI241
Vdoing
p242
sI242
Vstretching
p243
sI243
Vrock
p244
sI244
Vcomplex
p245
sI245
Vposture
p246
sI246
Vcalled
p247
sI247
Vsuryanamaskar
p248
sI248
Vvarious
p249
sI249
Vpostures
p250
sI250
Vopen
p251
sI251
Vplace
p252
sI252
Vperforms
p253
sI253
Vseries
p254
sI254
Vmountain
p255
sI255
Vstretches
p256
sI256
Vdid
p257
sI257
Vtai
p258
sI258
Vchi
p259
sI259
Vstretched
p260
sI260
Voutside
p261
sI261
Vsuit
p262
sI262
Vhanded
p263
sI263
Vpush
p264
sI264
Vups
p265
sI265
Varmed
p266
sI266
Vfront
p267
sI267
Vaudience
p268
sI268
Vexercise
p269
sI269
Vpeople
p270
sI270
Varm
p271
sI271
Vhand
p272
sI272
Vonly
p273
sI273
Vusing
p274
sI274
Vfinger
p275
sI275
Vpushups
p276
sI276
Vright
p277
sI277
Vsupported
p278
sI278
Vground
p279
sI279
Vspectators
p280
sI280
Vpours
p281
sI281
Vwater
p282
sI282
Vkettle
p283
sI283
Vglass
p284
sI284
Vmeasuring
p285
sI285
Vcup
p286
sI286
Vpouring
p287
sI287
Vcups
p288
sI288
Vchef
p289
sI289
Vpoured
p290
sI290
Vphone
p291
sI291
Vhook
p292
sI292
Vbird
p293
sI293
Vappears
p294
sI294
Vbe
p295
sI295
Vdialing
p296
sI296
Vit's
p297
sI297
Vbeak
p298
sI298
Vparakeet
p299
sI299
Vpecking
p300
sI300
Vtelephone
p301
sI301
Vbuttons
p302
sI302
Vits
p303
sI303
Vnumber
p304
sI304
Vpad
p305
sI305
Vat
p306
sI306
Vnumbers
p307
sI307
Vparrot
p308
sI308
Vmaking
p309
sI309
Vcall
p310
sI310
Vstanding
p311
sI311
Vfollows
p312
sI312
Vinstructions
p313
sI313
Vrecorded
p314
sI314
Vvoice
p315
sI315
Vmessage
p316
sI316
Vplaying
p317
sI317
Vdials
p318
sI318
Vpecked
p319
sI319
Vphone's
p320
sI320
Vmade
p321
sI321
Vlarge
p322
sI322
Vdog
p323
sI323
Vrefrigerator
p324
sI324
Vcloses
p325
sI325
Vdoor
p326
sI326
Vgrabs
p327
sI327
Vfridge
p328
sI328
Vopening
p329
sI329
Vtaking
p330
sI330
Vstealing
p331
sI331
Vwalks
p332
sI332
Vrefriderator
p333
sI333
Vgrabbing
p334
sI334
Vopened
p335
sI335
Vopens
p336
sI336
Vhelped
p337
sI337
Vhimself
p338
sI338
Verasing
p339
sI339
Vchalk
p340
sI340
Vboard
p341
sI341
Vchalkboard
p342
sI342
Vsecond
p343
sI343
Vthat
p344
sI344
Vnot
p345
sI345
Vviewing
p346
sI346
Vrange
p347
sI347
Vcleaning
p348
sI348
Vgreen
p349
sI349
Vother
p350
sI350
Verases
p351
sI351
Vwiping
p352
sI352
Veraser
p353
sI353
Vwriting
p354
sI354
Vblackboard
p355
sI355
Verased
p356
sI356
Vwhat
p357
sI357
Vhad
p358
sI358
Vwork
p359
sI359
Vpandas
p360
sI360
Vbench
p361
sI361
Vseveral
p362
sI362
Vswing
p363
sI363
Vpanda
p364
sI364
Vtogether
p365
sI365
Vsnow
p366
sI366
Vbunch
p367
sI367
Vplay
p368
sI368
Vbabies
p369
sI369
Vclimbing
p370
sI370
Vwooden
p371
sI371
Vframe
p372
sI372
Vcubs
p373
sI373
Vbears
p374
sI374
Vpanda's
p375
sI375
Vplayed
p376
sI376
Vfour
p377
sI377
Vstep
p378
sI378
Vwearing
p379
sI379
Vheadset
p380
sI380
Vsinging
p381
sI381
Vmicrophone
p382
sI382
Vheadphones
p383
sI383
Vsong
p384
sI384
Vsang
p385
sI385
Vstudio
p386
sI386
Vlooks
p387
sI387
Vmirror
p388
sI388
Vlad
p389
sI389
Vrecording
p390
sI390
Vbags
p391
sI391
Vproduce
p392
sI392
Vgroup
p393
sI393
Vmakeshift
p394
sI394
Vcounter
p395
sI395
Vhanding
p396
sI396
Vpackages
p397
sI397
Vcollects
p398
sI398
Vmoney
p399
sI399
Vbagging
p400
sI400
Vpassing
p401
sI401
Vcrowd
p402
sI402
Vselling
p403
sI403
Vgoods
p404
sI404
Vstreet
p405
sI405
Vitems
p406
sI406
Vthings
p407
sI407
Vsurrounded
p408
sI408
Vhands
p409
sI409
Vover
p410
sI410
Vbag
p411
sI411
Vflips
p412
sI412
Vanother
p413
sI413
Vhe
p414
sI414
Vhawker
p415
sI415
Vpurchasing
p416
sI416
Vconduct
p417
sI417
Vdrug
p418
sI418
Vdeal
p419
sI419
Vbagged
p420
sI420
Vpeople's
p421
sI421
Vfor
p422
sI422
Vproduct
p423
sI423
Vroundish
p424
sI424
Vobjects
p425
sI425
Vknife
p426
sI426
Vgarlic
p427
sI427
Vcloves
p428
sI428
Vgarlics
p429
sI429
Vdicing
p430
sI430
Vclove
p431
sI431
Vdices
p432
sI432
Vmushrooms
p433
sI433
Vcrushed
p434
sI434
Vmincing
p435
sI435
Vonions
p436
sI436
Vchopped
p437
sI437
Vpicks
p438
sI438
Vplaces
p439
sI439
Vreceiver
p440
sI440
Vbase
p441
sI441
Vholding
p442
sI442
Vlittle
p443
sI443
Vtoddler
p444
sI444
Vyoung
p445
sI445
Vafter
p446
sI446
Vred
p447
sI447
Vstrawberry
p448
sI448
Vsat
p449
sI449
Vate
p450
sI450
Vflute
p451
sI451
Vband
p452
sI452
Vwind
p453
sI453
Vinstrument
p454
sI454
Vmen
p455
sI455
Vbongo
p456
sI456
Vdrums
p457
sI457
Vplays
p458
sI458
Vmusician
p459
sI459
Vinstruments
p460
sI460
Valgebraic
p461
sI461
Vequations
p462
sI462
Vmath
p463
sI463
Vteacher
p464
sI464
Vformula
p465
sI465
Vwhiteboard
p466
sI466
Vsolving
p467
sI467
Vproblems
p468
sI468
Vequation
p469
sI469
Vdraws
p470
sI470
Valgebra
p471
sI471
Vdry
p472
sI472
Verase
p473
sI473
Vmathematical
p474
sI474
Vexplaining
p475
sI475
Vclassroom
p476
sI476
Vteach
p477
sI477
Vwrites
p478
sI478
Vborder
p479
sI479
Vproblem
p480
sI480
Vformulas
p481
sI481
Vyellow
p482
sI482
Vtrain
p483
sI483
Vdriving
p484
sI484
Vtrack
p485
sI485
Vbridge
p486
sI486
Vrides
p487
sI487
Vtracks
p488
sI488
Vcrosses
p489
sI489
Vcrossing
p490
sI490
Vrailroad
p491
sI491
Vgoing
p492
sI492
Vsubway
p493
sI493
Vhigh
p494
sI494
Vspeed
p495
sI495
Vzooms
p496
sI496
Vcrossed
p497
sI497
Vbullet
p498
sI498
Vtressel
p499
sI499
Vwraps
p500
sI500
Vtofu
p501
sI501
Vcloth
p502
sI502
Vturns
p503
sI503
Vfolded
p504
sI504
Vmetal
p505
sI505
Vwrapping
p506
sI506
Vblock
p507
sI507
Vpaper
p508
sI508
Vcovering
p509
sI509
Vtowel
p510
sI510
Vparchment
p511
sI511
Vwrapped
p512
sI512
Vrest
p513
sI513
Vfalls
p514
sI514
Vdirt
p515
sI515
Vmotorcyclist
p516
sI516
Vroad
p517
sI517
Vwheelie
p518
sI518
Vloses
p519
sI519
Vcontrol
p520
sI520
Vmotorcycle
p521
sI521
Vfell
p522
sI522
Vcrashing
p523
sI523
Vtrying
p524
sI524
Vperform
p525
sI525
Vstunt
p526
sI526
Vwheeling
p527
sI527
Vcrashes
p528
sI528
Vfalling
p529
sI529
Vmotorbike
p530
sI530
Vattempting
p531
sI531
Vguy
p532
sI532
Vpops
p533
sI533
Vwipes
p534
sI534
Vwrecks
p535
sI535
Vwreck
p536
sI536
Vcountry
p537
sI537
Vrider
p538
sI538
Vmotorcylist
p539
sI539
Vhits
p540
sI540
Vdriver
p541
sI541
Vcomes
p542
sI542
Vthree
p543
sI543
Vlegged
p544
sI544
Vrottweiler
p545
sI545
Vgrass
p546
sI546
Vblack
p547
sI547
Vgrassy
p548
sI548
Vpatch
p549
sI549
Vland
p550
sI550
Vyard
p551
sI551
Vstops
p552
sI552
Vwalked
p553
sI553
Vdancing
p554
sI554
Vdances
p555
sI555
Vbobbing
p556
sI556
Vmusic
p557
sI557
Vcockatoo
p558
sI558
Vperched
p559
sI559
Vcrest
p560
sI560
Vstamping
p561
sI561
Vfeet
p562
sI562
Vrhythmically
p563
sI563
Vbackground
p564
sI564
Vuncaged
p565
sI565
Vdanced
p566
sI566
Vperch
p567
sI567
Vcracks
p568
sI568
Vcracking
p569
sI569
Vbreaking
p570
sI570
Vdish
p571
sI571
Vbreaks
p572
sI572
Vbroke
p573
sI573
Vsliding
p574
sI574
Vslide
p575
sI575
Vchildren
p576
sI576
Vplastic
p577
sI577
Vkids
p578
sI578
Vslope
p579
sI579
Vcovered
p580
sI580
Vsheet
p581
sI581
Vwet
p582
sI582
Vcouple
p583
sI583
Vhill
p584
sI584
Vtarp
p585
sI585
Vslip
p586
sI586
V'n
p587
sI587
Vwomen
p588
sI588
Vget
p589
sI589
Vtaxi
p590
sI590
Vleaving
p591
sI591
Vcab
p592
sI592
Vexit
p593
sI593
Vgirls
p594
sI594
Vcoming
p595
sI595
Vcar
p596
sI596
Vexiting
p597
sI597
Vbackseat
p598
sI598
Vvideo
p599
sI599
Vclip
p600
sI600
Vrihanna
p601
sI601
Vdark
p602
sI602
Vglasses
p603
sI603
Vshort
p604
sI604
Vdress
p605
sI605
Vfollowed
p606
sI606
Vgot
p607
sI607
Vbroccoli
p608
sI608
Vplacing
p609
sI609
Vboiling
p610
sI610
Vcool
p611
sI611
Vhot
p612
sI612
Vcooking
p613
sI613
Vbrocolli
p614
sI614
Vboiled
p615
sI615
Vblanced
p616
sI616
Vcold
p617
sI617
Vstrained
p618
sI618
Vcooked
p619
sI619
Vcooled
p620
sI620
Vtransferred
p621
sI621
Vflorets
p622
sI622
Vstrainer
p623
sI623
Vremoves
p624
sI624
Vflowerettes
p625
sI625
Vtransfers
p626
sI626
Vcontaining
p627
sI627
Vcat
p628
sI628
Vswats
p629
sI629
Vmale
p630
sI630
Vattacking
p631
sI631
Vhitting
p632
sI632
Vswatting
p633
sI633
Vpaws
p634
sI634
Vchilds
p635
sI635
Vrapidly
p636
sI636
Vkid
p637
sI637
Vchild
p638
sI638
Vnext
p639
sI639
Vwhich
p640
sI640
Vraising
p641
sI641
Vlimbs
p642
sI642
Vscratched
p643
sI643
Vtapped
p644
sI644
Vboy's
p645
sI645
Vguitar
p646
sI646
Vacoustic
p647
sI647
Vhouse
p648
sI648
Vstrummed
p649
sI649
Vcouch
p650
sI650
Vcute
p651
sI651
Vpuppy
p652
sI652
Vrunning
p653
sI653
Varound
p654
sI654
Vsofa
p655
sI655
Vruns
p656
sI656
Vsettee
p657
sI657
Vshih
p658
sI658
Vtzu
p659
sI659
Vfrilly
p660
sI660
Vromps
p661
sI661
Vleather
p662
sI662
Vbefore
p663
sI663
Vjumping
p664
sI664
Vmoves
p665
sI665
Vfro
p666
sI666
Valong
p667
sI667
Vedge
p668
sI668
Vfinally
p669
sI669
Vjumps
p670
sI670
Vfloor
p671
sI671
Vbelow
p672
sI672
Vtried
p673
sI673
Vhamsters
p674
sI674
Vpigs
p675
sI675
Vguinea
p676
sI676
Vvegetation
p677
sI677
Vleaves
p678
sI678
Vgerbal'sa
p679
sI679
Vbeside
p680
sI680
Veach
p681
sI681
Vlong
p682
sI682
Vleaf
p683
sI683
Vfed
p684
sI684
Vindividually
p685
sI685
Veat
p686
sI686
Vlettuce
p687
sI687
Vblades
p688
sI688
Vgun
p689
sI689
Vsilencer
p690
sI690
Vassembling
p691
sI691
Vsilencerco
p692
sI692
Vsparrow
p693
sI693
Vfitting
p694
sI694
Vpistol
p695
sI695
Vmodifies
p696
sI696
Vbarrel
p697
sI697
Vhandgun
p698
sI698
Vviolin
p699
sI699
Vstarts
p700
sI700
Vsing
p701
sI701
Vstage
p702
sI702
Vsings
p703
sI703
Vviolen
p704
sI704
Vwolves
p705
sI705
Vbear
p706
sI706
Vchasing
p707
sI707
Vdefending
p708
sI708
Vchases
p709
sI709
Vwolfs
p710
sI710
Vaway
p711
sI711
Vfight
p712
sI712
Vwolf
p713
sI713
Vhunting
p714
sI714
Vpig
p715
sI715
Vencounters
p716
sI716
Vprotecting
p717
sI717
Vcub
p718
sI718
Vfighting
p719
sI719
Vdogs
p720
sI720
Vharassed
p721
sI721
Vcircling
p722
sI722
Vrun
p723
sI723
Vpreps
p724
sI724
Vsalmon
p725
sI725
Vmeal
p726
sI726
Vfish
p727
sI727
Vtray
p728
sI728
Vfilled
p729
sI729
Vsalt
p730
sI730
Vbacking
p731
sI731
Vcovers
p732
sI732
Vplaced
p733
sI733
Vbed
p734
sI734
Vmixed
p735
sI735
Vcasserole
p736
sI736
Vbaking
p737
sI737
Vlaid
p738
sI738
Vmeat
p739
sI739
Vspice
p740
sI740
Vmixture
p741
sI741
Vportions
p742
sI742
Vflesh
p743
sI743
Vwhole
p744
sI744
Vspread
p745
sI745
Vbeating
p746
sI746
Vclear
p747
sI747
Vliquid
p748
sI748
Vsubstance
p749
sI749
Vlarger
p750
sI750
Vflour
p751
sI751
Vwhisks
p752
sI752
Vmixes
p753
sI753
Vmanas
p754
sI754
Vmasalo
p755
sI755
Vpanima
p756
sI756
Vnakhi
p757
sI757
Vhalave
p758
sI758
Vche
p759
sI759
Vstirring
p760
sI760
Voil
p761
sI761
Vsomeoen
p762
sI762
Vingrediants
p763
sI763
Vgranulated
p764
sI764
Vdashi
p765
sI765
Vwhisk
p766
sI766
Vwhisked
p767
sI767
Vbatter
p768
sI768
Vbeats
p769
sI769
Vstrips
p770
sI770
Vfillet
p771
sI771
Vtuna
p772
sI772
Vsushi
p773
sI773
Vsliced
p774
sI774
Vsteak
p775
sI775
Vdrinking
p776
sI776
Vtable
p777
sI777
Vdrinks
p778
sI778
Vjuice
p779
sI779
Vmilk
p780
sI780
Vtumbler
p781
sI781
Vstraw
p782
sI782
Vsipping
p783
sI783
Vsipper
p784
sI784
Vkept
p785
sI785
Vplate
p786
sI786
Vsippy
p787
sI787
Vdrank
p788
sI788
Vdrink
p789
sI789
Vblends
p790
sI790
Vspicy
p791
sI791
Vmarinade
p792
sI792
Vblender
p793
sI793
Vmayonnaise
p794
sI794
Vvegetable
p795
sI795
Vvinegar
p796
sI796
Vpods
p797
sI797
Vjalapeno
p798
sI798
Vpeppers
p799
sI799
Vall
p800
sI800
Vmultiple
p801
sI801
Vblending
p802
sI802
Vblended
p803
sI803
Vetc
p804
sI804
Vliquids
p805
sI805
Vsauce
p806
sI806
Vsauces
p807
sI807
Vliquidized
p808
sI808
Vmotion
p809
sI809
Vran
p810
sI810
Vsunglasses
p811
sI811
Vmiddle
p812
sI812
Vempty
p813
sI813
Vkitten
p814
sI814
Vtags
p815
sI815
Vtapping
p816
sI816
Vlap
p817
sI817
Vteasing
p818
sI818
Vtentatively
p819
sI819
Vtouching
p820
sI820
Vpaw
p821
sI821
Vtouch
p822
sI822
Vrepeatedly
p823
sI823
Vtaps
p824
sI824
Vtouches
p825
sI825
Vcozily
p826
sI826
Vstroked
p827
sI827
Vgrey
p828
sI828
Vdog's
p829
sI829
Vattention
p830
sI830
Vteased
p831
sI831
Vropes
p832
sI832
Vsuspended
p833
sI833
Vceiling
p834
sI834
Vcord
p835
sI835
Vair
p836
sI836
Vcords
p837
sI837
Vswinging
p838
sI838
Vstring
p839
sI839
Vrope
p840
sI840
Vfurry
p841
sI841
Vdangled
p842
sI842
Vlori
p843
sI843
Vwires
p844
sI844
Vcircle
p845
sI845
Vpink
p846
sI846
Vcenter
p847
sI847
Vscissors
p848
sI848
Vcircular
p849
sI849
Vshape
p850
sI850
Vpair
p851
sI851
Vpapers
p852
sI852
Vcone
p853
sI853
Vcircl
p854
sI854
Vheld
p855
sI855
Vcarrie
p856
sI856
Vunderwood
p857
sI857
Vconcert
p858
sI858
Vzebras
p859
sI859
Vnuzzling
p860
sI860
Vnuzzled
p861
sI861
Vzebra
p862
sI862
Vrubbing
p863
sI863
Vfaces
p864
sI864
Vheads
p865
sI865
Vnudging
p866
sI866
Vsocializing
p867
sI867
Vstroking
p868
sI868
Vgroom
p869
sI869
Vrub
p870
sI870
Vgorilla
p871
sI871
Vshopping
p872
sI872
Ventertains
p873
sI873
Vbongos
p874
sI874
Vstore
p875
sI875
Vbegins
p876
sI876
Vbanging
p877
sI877
Vdressed
p878
sI878
Vape
p879
sI879
Vdepartmental
p880
sI880
Vcostume
p881
sI881
Vdepartment
p882
sI882
Vdisrupting
p883
sI883
Vbongs
p884
sI884
Vkeyboard
p885
sI885
Vcustomer
p886
sI886
Vbangs
p887
sI887
Vwindow
p888
sI888
Vlooking
p889
sI889
Vroom
p890
sI890
Vhas
p891
sI891
Vpane
p892
sI892
Vpartially
p893
sI893
Vbean
p894
sI894
Vtries
p895
sI895
Vlooked
p896
sI896
Vstairs
p897
sI897
Vdance
p898
sI898
Vshook
p899
sI899
Vbody
p900
sI900
Vsteps
p901
sI901
Velbow
p902
sI902
Vdimly
p903
sI903
Vshe's
p904
sI904
Varms
p905
sI905
Vkeeping
p906
sI906
Vtime
p907
sI907
Vstaircase
p908
sI908
Vswings
p909
sI909
Vjig
p910
sI910
Vlipstick
p911
sI911
Vbrush
p912
sI912
Vpainting
p913
sI913
Vlips
p914
sI914
Vapplying
p915
sI915
Vteenage
p916
sI916
Vlip
p917
sI917
Vgloss
p918
sI918
Vapplies
p919
sI919
Vcolor
p920
sI920
Vmakeup
p921
sI921
Vhispanic
p922
sI922
Vpercussionist
p923
sI923
Vdrummer
p924
sI924
Vdrum
p925
sI925
Vkit
p926
sI926
Vdrumming
p927
sI927
Vset
p928
sI928
Vwords
p929
sI929
Vjohnny
p930
sI930
Vrobb
p931
sI931
Vdisplayed
p932
sI932
Vscreen
p933
sI933
Vletters
p934
sI934
Vtown
p935
sI935
Varea
p936
sI936
Vchairs
p937
sI937
Vmotor
p938
sI938
Vcycle
p939
sI939
Vcity
p940
sI940
Vstreets
p941
sI941
Vrode
p942
sI942
Vneighborhood
p943
sI943
Vonstage
p944
sI944
Vspotlight
p945
sI945
Velvis
p946
sI946
Vpresley
p947
sI947
Vclanging
p948
sI948
Vknees
p949
sI949
Voutwards
p950
sI950
Vfunny
p951
sI951
Vcrying
p952
sI952
Vtying
p953
sI953
Vnoose
p954
sI954
Vties
p955
sI955
Vhangman's
p956
sI956
Vbinding
p957
sI957
Vknot
p958
sI958
Vmakes
p959
sI959
Vwinds
p960
sI960
Vrolling
p961
sI961
Vdough
p962
sI962
Vballs
p963
sI963
Vround
p964
sI964
Vbread
p965
sI965
Vballing
p966
sI966
Vkneeding
p967
sI967
Vrolls
p968
sI968
Vkneaded
p969
sI969
Vpalms
p970
sI970
Vsmooth
p971
sI971
Vdrawer
p972
sI972
Vclimbs
p973
sI973
Vbig
p974
sI974
Vhops
p975
sI975
Vinside
p976
sI976
Ventered
p977
sI977
Vstorage
p978
sI978
Vbox
p979
sI979
Vdraw
p980
sI980
Vsqueezes
p981
sI981
Vpulls
p982
sI982
Vcabinet
p983
sI983
Vleft
p984
sI984
Vthereafter
p985
sI985
Venters
p986
sI986
Vclimbed
p987
sI987
Vcookie
p988
sI988
Vcombines
p989
sI989
Vspatula
p990
sI990
Vform
p991
sI991
Vstirs
p992
sI992
Vstirred
p993
sI993
Vspoon
p994
sI994
Vmix
p995
sI995
Vpicnic
p996
sI996
Vwatches
p997
sI997
Vhurdle
p998
sI998
Vdo
p999
sI999
Vflip
p1000
sI1000
Vdiving
p1001
sI1001
Vpark
p1002
sI1002
Vflipped
p1003
sI1003
Vwatched
p1004
sI1004
Vjumped
p1005
sI1005
Vwhere
p1006
sI1006
Vlicked
p1007
sI1007
Vsleeping
p1008
sI1008
Votherwise
p1009
sI1009
Vmanhandling
p1010
sI1010
Vlaying
p1011
sI1011
Vbull
p1012
sI1012
Vslaps
p1013
sI1013
Vpet
p1014
sI1014
Vbrown
p1015
sI1015
Vbaby's
p1016
sI1016
Vrough
p1017
sI1017
Vmoonwalk
p1018
sI1018
Vbackwards
p1019
sI1019
Vpushing
p1020
sI1020
Vitself
p1021
sI1021
Vpushes
p1022
sI1022
Vpug
p1023
sI1023
Vslides
p1024
sI1024
Vscooted
p1025
sI1025
Vslid
p1026
sI1026
Vscoots
p1027
sI1027
Vsteve
p1028
sI1028
Vmartin
p1029
sI1029
Vmagic
p1030
sI1030
Vact
p1031
sI1031
Vtuxedo
p1032
sI1032
Vhe's
p1033
sI1033
Vpulling
p1034
sI1034
Vfly
p1035
sI1035
Vtrousers
p1036
sI1036
Vtick
p1037
sI1037
Vcrotch
p1038
sI1038
Vbasket
p1039
sI1039
Vball
p1040
sI1040
Vpants
p1041
sI1041
Vping
p1042
sI1042
Vpong
p1043
sI1043
Vzipper
p1044
sI1044
Vcomedian
p1045
sI1045
Vpulled
p1046
sI1046
Vturning
p1047
sI1047
Vchicken
p1048
sI1048
Vwings
p1049
sI1049
Vtongs
p1050
sI1050
Vfoods
p1051
sI1051
Vthighs
p1052
sI1052
Vfrying
p1053
sI1053
Vorganizing
p1054
sI1054
Vflipping
p1055
sI1055
Voven
p1056
sI1056
Vturned
p1057
sI1057
Vjellyroll
p1058
sI1058
Vspinning
p1059
sI1059
Vboys
p1060
sI1060
Vswivel
p1061
sI1061
Vcordless
p1062
sI1062
Vguys
p1063
sI1063
Vhaving
p1064
sI1064
Vconversation
p1065
sI1065
Vcell
p1066
sI1066
Vanswers
p1067
sI1067
Vtwirled
p1068
sI1068
Vanswered
p1069
sI1069
Vfriend
p1070
sI1070
Vswivels
p1071
sI1071
Vcalls
p1072
sI1072
Vchops
p1073
sI1073
Vpork
p1074
sI1074
Vchop
p1075
sI1075
Vfield
p1076
sI1076
Vherself
p1077
sI1077
Vletter
p1078
sI1078
Vtree
p1079
sI1079
Vnote
p1080
sI1080
Vnotes
p1081
sI1081
Vwoods
p1082
sI1082
Vwrote
p1083
sI1083
Vswimming
p1084
sI1084
Vopposite
p1085
sI1085
Vdirections
p1086
sI1086
Vocean
p1087
sI1087
Vcreature
p1088
sI1088
Vhave
p1089
sI1089
Vfingers
p1090
sI1090
Vclose
p1091
sI1091
Vbottom
p1092
sI1092
Vinteracting
p1093
sI1093
Vsea
p1094
sI1094
Vstrange
p1095
sI1095
Vcruises
p1096
sI1096
Vaquarium
p1097
sI1097
Veel
p1098
sI1098
Vbumped
p1099
sI1099
Vunderwater
p1100
sI1100
Vugly
p1101
sI1101
Vswims
p1102
sI1102
Vsquirrel
p1103
sI1103
Vhopping
p1104
sI1104
Vforth
p1105
sI1105
Vcomputerized
p1106
sI1106
Vanimated
p1107
sI1107
Vlawn
p1108
sI1108
Vumbrella
p1109
sI1109
Vwall
p1110
sI1110
Vtrash
p1111
sI1111
Vreceptacle
p1112
sI1112
Vleaping
p1113
sI1113
Vobstacles
p1114
sI1114
Vrain
p1115
sI1115
Vwastebasket
p1116
sI1116
Vsummersault
p1117
sI1117
Vkicking
p1118
sI1118
Vattempts
p1119
sI1119
Vstunts
p1120
sI1120
Vtabel
p1121
sI1121
Vcan
p1122
sI1122
Vjumpped
p1123
sI1123
Vtrashcan
p1124
sI1124
Vrind
p1125
sI1125
Vlemon
p1126
sI1126
Vorange
p1127
sI1127
Vcarefully
p1128
sI1128
Vbit
p1129
sI1129
Vthin
p1130
sI1130
Vyuzu
p1131
sI1131
Vpince
p1132
sI1132
Vskin
p1133
sI1133
Vfine
p1134
sI1134
Vstaring
p1135
sI1135
Vmeows
p1136
sI1136
Vmeowing
p1137
sI1137
Vmouth
p1138
sI1138
Vaddresses
p1139
sI1139
Vstares
p1140
sI1140
Vpurrs
p1141
sI1141
Vsoftly
p1142
sI1142
Vmeowed
p1143
sI1143
Vtomato
p1144
sI1144
Vsaucepan
p1145
sI1145
Vsouse
p1146
sI1146
Vsausage
p1147
sI1147
Vtomatoe
p1148
sI1148
Vsausages
p1149
sI1149
Vbicycle
p1150
sI1150
Vpassenger
p1151
sI1151
Vcrossbar
p1152
sI1152
Vride
p1153
sI1153
Vsame
p1154
sI1154
Vgave
p1155
sI1155
Vserving
p1156
sI1156
Vdiner
p1157
sI1157
Vbooth
p1158
sI1158
Vplates
p1159
sI1159
Vserves
p1160
sI1160
Vcap
p1161
sI1161
Vwaiter
p1162
sI1162
Vrestuarant
p1163
sI1163
Vrestaurant
p1164
sI1164
Vserved
p1165
sI1165
Vsnacks
p1166
sI1166
Vsnack
p1167
sI1167
Vpowder
p1168
sI1168
Vpoultry
p1169
sI1169
Vdishes
p1170
sI1170
Vceramic
p1171
sI1171
Vtakes
p1172
sI1172
Vface
p1173
sI1173
Vtosses
p1174
sI1174
Vtoward
p1175
sI1175
Vplants
p1176
sI1176
Vledge
p1177
sI1177
Vspills
p1178
sI1178
Vthrows
p1179
sI1179
Vcontents
p1180
sI1180
Vnearby
p1181
sI1181
Vporing
p1182
sI1182
Vtea
p1183
sI1183
Vthrowing
p1184
sI1184
Vcoffee
p1185
sI1185
Vsips
p1186
sI1186
Vparapet
p1187
sI1187
Vthrew
p1188
sI1188
Vnoodles
p1189
sI1189
Vchopsticks
p1190
sI1190
Vpasta
p1191
sI1191
Vfrozen
p1192
sI1192
Vudon
p1193
sI1193
Vdried
p1194
sI1194
Vrices
p1195
sI1195
Vrice
p1196
sI1196
Vbeef
p1197
sI1197
Vroni
p1198
sI1198
Vskillet
p1199
sI1199
Vkind
p1200
sI1200
Vcooks
p1201
sI1201
Vdumping
p1202
sI1202
Vempties
p1203
sI1203
Vcarton
p1204
sI1204
Vmelted
p1205
sI1205
Vric
p1206
sI1206
Vtornado
p1207
sI1207
Vswirling
p1208
sI1208
Vcloud
p1209
sI1209
Vdust
p1210
sI1210
Vdirection
p1211
sI1211
Vgiant
p1212
sI1212
Vtwister
p1213
sI1213
Vmuddy
p1214
sI1214
Vhuge
p1215
sI1215
Vahead
p1216
sI1216
Vsand
p1217
sI1217
Votters
p1218
sI1218
Vpool
p1219
sI1219
Vanimals
p1220
sI1220
Vgroups
p1221
sI1221
Vse
p1222
sI1222
Vplayyed
p1223
sI1223
Vinstructing
p1224
sI1224
Vabout
p1225
sI1225
Vbatting
p1226
sI1226
Vtraining
p1227
sI1227
Vbat
p1228
sI1228
Vcricket
p1229
sI1229
Vteaching
p1230
sI1230
Vhow
p1231
sI1231
Vshowing
p1232
sI1232
Vteaches
p1233
sI1233
Vproper
p1234
sI1234
Vstance
p1235
sI1235
Vhelping
p1236
sI1236
Vdemonstrating
p1237
sI1237
Vgame
p1238
sI1238
Vstaning
p1239
sI1239
Vcoach
p1240
sI1240
Vguiding
p1241
sI1241
Vway
p1242
sI1242
Vcoached
p1243
sI1243
Vtrainer
p1244
sI1244
Vcorrect
p1245
sI1245
Vshows
p1246
sI1246
Vplayer
p1247
sI1247
Vgrip
p1248
sI1248
Vstroke
p1249
sI1249
Vbottle
p1250
sI1250
Vgreat
p1251
sI1251
Vbaseball
p1252
sI1252
Vcatches
p1253
sI1253
Vamazing
p1254
sI1254
Vcatch
p1255
sI1255
Vfielder
p1256
sI1256
Vcaught
p1257
sI1257
Vcatching
p1258
sI1258
Vmatch
p1259
sI1259
Vfielding
p1260
sI1260
Vdives
p1261
sI1261
Vtriumph
p1262
sI1262
Vterrific
p1263
sI1263
Vstatue
p1264
sI1264
Vmonkeys
p1265
sI1265
Vstatues
p1266
sI1266
Vgolden
p1267
sI1267
Vbuddha
p1268
sI1268
Vidol
p1269
sI1269
Vgold
p1270
sI1270
Vexcited
p1271
sI1271
Vbook
p1272
sI1272
Vmatches
p1273
sI1273
Vpacket
p1274
sI1274
Vlighting
p1275
sI1275
Vsets
p1276
sI1276
Vmatchbook
p1277
sI1277
Vcover
p1278
sI1278
Vpack
p1279
sI1279
Vmimicking
p1280
sI1280
Vscreaming
p1281
sI1281
Vlights
p1282
sI1282
Vburst
p1283
sI1283
Valone
p1284
sI1284
Vtap
p1285
sI1285
Vsmoking
p1286
sI1286
Vcigarette
p1287
sI1287
Vcigar
p1288
sI1288
Vpuffs
p1289
sI1289
Vsmokes
p1290
sI1290
Vdrag
p1291
sI1291
Vsmoked
p1292
sI1292
Vblank
p1293
sI1293
Vkissing
p1294
sI1294
Vreflection
p1295
sI1295
Vsees
p1296
sI1296
Vkiss
p1297
sI1297
Vself
p1298
sI1298
Vkissed
p1299
sI1299
Vimage
p1300
sI1300
Vkisses
p1301
sI1301
Vcartoon
p1302
sI1302
Vanimation
p1303
sI1303
Vtrapeze
p1304
sI1304
Vbouncing
p1305
sI1305
Vnet
p1306
sI1306
Vagain
p1307
sI1307
Vt
p1308
sI1308
Vchest
p1309
sI1309
Vacrobat
p1310
sI1310
Vcharacter
p1311
sI1311
Vcircus
p1312
sI1312
Vartist
p1313
sI1313
Vbar
p1314
sI1314
Vtrick
p1315
sI1315
Vbounced
p1316
sI1316
Vpowders
p1317
sI1317
Vbrushing
p1318
sI1318
Vfoundation
p1319
sI1319
Vthick
p1320
sI1320
Vdemonstrates
p1321
sI1321
Vcosmetics
p1322
sI1322
Vapplied
p1323
sI1323
Vhammering
p1324
sI1324
Vnails
p1325
sI1325
Vstrip
p1326
sI1326
Vwood
p1327
sI1327
Vhammers
p1328
sI1328
Vnail
p1329
sI1329
Vun
p1330
sI1330
Vhomme
p1331
sI1331
Vplante
p1332
sI1332
Vclou
p1333
sI1333
Vpound
p1334
sI1334
Vhammer
p1335
sI1335
Vdrives
p1336
sI1336
Vlense
p1337
sI1337
Vused
p1338
sI1338
Vlens
p1339
sI1339
Vskull
p1340
sI1340
Vtalk
p1341
sI1341
Vjaws
p1342
sI1342
Vmanipulating
p1343
sI1343
Vlook
p1344
sI1344
Vhuman
p1345
sI1345
Vman's
p1346
sI1346
Vproviding
p1347
sI1347
Vmanipulates
p1348
sI1348
Vmask
p1349
sI1349
Vprovides
p1350
sI1350
Vjaw
p1351
sI1351
Vappear
p1352
sI1352
Vpuppet
p1353
sI1353
Vtape
p1354
sI1354
Vmail
p1355
sI1355
Vpackage
p1356
sI1356
Vtapes
p1357
sI1357
Vfastened
p1358
sI1358
Vwild
p1359
sI1359
Vtuber
p1360
sI1360
Vginger
p1361
sI1361
Vpotatoes
p1362
sI1362
Vpotatoe
p1363
sI1363
Vgrinding
p1364
sI1364
Vbeans
p1365
sI1365
Vgrinds
p1366
sI1366
Vsoaked
p1367
sI1367
Vurad
p1368
sI1368
Vdhal
p1369
sI1369
Vlid
p1370
sI1370
Vladies
p1371
sI1371
Vingredents
p1372
sI1372
Vpealing
p1373
sI1373
Vbanana
p1374
sI1374
Vstem
p1375
sI1375
Vstarting
p1376
sI1376
Vpinches
p1377
sI1377
Vtip
p1378
sI1378
Vslits
p1379
sI1379
Veither
p1380
sI1380
Vsock
p1381
sI1381
Vscissor
p1382
sI1382
Vportion
p1383
sI1383
Vshears
p1384
sI1384
Vfabric
p1385
sI1385
Vsocks
p1386
sI1386
Vknit
p1387
sI1387
Vsomone
p1388
sI1388
Vbeach
p1389
sI1389
Vlead
p1390
sI1390
Vbeachside
p1391
sI1391
Vleading
p1392
sI1392
Vled
p1393
sI1393
Vdesperately
p1394
sI1394
Vshut
p1395
sI1395
Vhiding
p1396
sI1396
Vcardboard
p1397
sI1397
Vflap
p1398
sI1398
Vcutout
p1399
sI1399
Vclosed
p1400
sI1400
Vdoorway
p1401
sI1401
Vkeeps
p1402
sI1402
Vpoking
p1403
sI1403
Vonion
p1404
sI1404
Vcrosswise
p1405
sI1405
Vrings
p1406
sI1406
Vuniform
p1407
sI1407
Vthickness
p1408
sI1408
Vhold
p1409
sI1409
Vwooded
p1410
sI1410
Vforest
p1411
sI1411
Vwalk
p1412
sI1412
Vpath
p1413
sI1413
Vtyping
p1414
sI1414
Vcomputer
p1415
sI1415
Vdesk
p1416
sI1416
Vtypes
p1417
sI1417
Vpc
p1418
sI1418
Vbusiness
p1419
sI1419
Vreading
p1420
sI1420
Vworked
p1421
sI1421
Vsniffs
p1422
sI1422
Vduck
p1423
sI1423
Vpecks
p1424
sI1424
Vsniffing
p1425
sI1425
Vchecking
p1426
sI1426
Vndog
p1427
sI1427
Vsmelling
p1428
sI1428
Vcurious
p1429
sI1429
Vnose
p1430
sI1430
Vduckling
p1431
sI1431
Vchick
p1432
sI1432
Vchecked
p1433
sI1433
Vsniffed
p1434
sI1434
Vpaste
p1435
sI1435
Vtomatoes
p1436
sI1436
Vsaut
p1437
sI1437
Ved
p1438
sI1438
Voiling
p1439
sI1439
Vsign
p1440
sI1440
Vlanguage
p1441
sI1441
Vcommunicating
p1442
sI1442
Vsaying
p1443
sI1443
Vaction
p1444
sI1444
Vacting
p1445
sI1445
Vsigning
p1446
sI1446
Vpracticing
p1447
sI1447
Vor
p1448
sI1448
Vlanguages
p1449
sI1449
Vcommunicate
p1450
sI1450
Vtoe
p1451
sI1451
Vboot
p1452
sI1452
Vsword
p1453
sI1453
Vsevers
p1454
sI1454
Vshoe
p1455
sI1455
Vcowboy
p1456
sI1456
Vmachete
p1457
sI1457
Vhalf
p1458
sI1458
Vslice
p1459
sI1459
Vpeeler
p1460
sI1460
Vskinned
p1461
sI1461
Veared
p1462
sI1462
Vrocks
p1463
sI1463
Vrodent
p1464
sI1464
Vextraordinarily
p1465
sI1465
Vears
p1466
sI1466
Vpebbly
p1467
sI1467
Vterrain
p1468
sI1468
Vmouse
p1469
sI1469
Vchinchilla
p1470
sI1470
Vjerboa
p1471
sI1471
Vrat
p1472
sI1472
Vscurrying
p1473
sI1473
Vhopped
p1474
sI1474
Vjeroba
p1475
sI1475
Vsearched
p1476
sI1476
Vpencil
p1477
sI1477
Vsharpened
p1478
sI1478
Vcnc
p1479
sI1479
Vlathe
p1480
sI1480
Vmachine
p1481
sI1481
Vsharpening
p1482
sI1482
Vsharpens
p1483
sI1483
Vnew
p1484
sI1484
Vcolored
p1485
sI1485
Vrobotic
p1486
sI1486
Vpower
p1487
sI1487
Vdowel
p1488
sI1488
Vtool
p1489
sI1489
Vformed
p1490
sI1490
Vsharpen
p1491
sI1491
Vshaved
p1492
sI1492
Vfires
p1493
sI1493
Vrevolver
p1494
sI1494
Vfiring
p1495
sI1495
Vshooting
p1496
sI1496
Vpocket
p1497
sI1497
Vshoots
p1498
sI1498
Vtiny
p1499
sI1499
Vrounds
p1500
sI1500
Vtarget
p1501
sI1501
Vcarrots
p1502
sI1502
Vcarrot
p1503
sI1503
Vquarter
p1504
sI1504
Vmoon
p1505
sI1505
Vshaped
p1506
sI1506
Vquarters
p1507
sI1507
Vspins
p1508
sI1508
Vtricks
p1509
sI1509
Vmotorcyle
p1510
sI1510
Vdaredevil
p1511
sI1511
Vfeeds
p1512
sI1512
Vbite
p1513
sI1513
Vfeeding
p1514
sI1514
Vseducing
p1515
sI1515
Vgives
p1516
sI1516
Vpetting
p1517
sI1517
Vcarrying
p1518
sI1518
Vhandles
p1519
sI1519
Vmanis
p1520
sI1520
Vwere
p1521
sI1521
Vsomeone's
p1522
sI1522
Vteams
p1523
sI1523
Vsoccer
p1524
sI1524
Vfootball
p1525
sI1525
Vdribbles
p1526
sI1526
Vopponents
p1527
sI1527
Vpeoples
p1528
sI1528
Vtricked
p1529
sI1529
Vdribbling
p1530
sI1530
Vfat
p1531
sI1531
Veludes
p1532
sI1532
Vleaner
p1533
sI1533
Vplayers
p1534
sI1534
Vdribbled
p1535
sI1535
Vpolishing
p1536
sI1536
Vvacuum
p1537
sI1537
Vcleans
p1538
sI1538
Vdevice
p1539
sI1539
Vdrags
p1540
sI1540
Vjanitor
p1541
sI1541
Vbrowning
p1542
sI1542
Vsauteing
p1543
sI1543
Vstir
p1544
sI1544
Vstove
p1545
sI1545
Vbrowns
p1546
sI1546
Vwallaby
p1547
sI1547
Vkangaroo
p1548
sI1548
Vlicking
p1549
sI1549
Vgirl's
p1550
sI1550
Vsomeones
p1551
sI1551
Vlicks
p1552
sI1552
Vperson'a
p1553
sI1553
Vpersons
p1554
sI1554
Vperson's
p1555
sI1555
Vs
p1556
sI1556
Vwrist
p1557
sI1557
Voutdoor
p1558
sI1558
Vlady's
p1559
sI1559
Vkangaroom
p1560
sI1560
Vperiphery
p1561
sI1561
Vdipping
p1562
sI1562
Vsideway
p1563
sI1563
Vswimmingpool
p1564
sI1564
Vmobile
p1565
sI1565
Vclandestine
p1566
sI1566
Vcellphone
p1567
sI1567
Vstoreroom
p1568
sI1568
Vsecretly
p1569
sI1569
Vsnuck
p1570
sI1570
Vphonecall
p1571
sI1571
Vwarehouse
p1572
sI1572
Vsinger
p1573
sI1573
Vshotgun
p1574
sI1574
Vyou
p1575
sI1575
Vsee
p1576
sI1576
Vblast
p1577
sI1577
Vfirring
p1578
sI1578
Vrifle
p1579
sI1579
Vghost
p1580
sI1580
Vdrawing
p1581
sI1581
Vpicture
p1582
sI1582
Vdrew
p1583
sI1583
Vclothes
p1584
sI1584
Vlengthwise
p1585
sI1585
Vmeticulously
p1586
sI1586
Vstics
p1587
sI1587
Vcream
p1588
sI1588
Vstick
p1589
sI1589
Vdropping
p1590
sI1590
Vchunk
p1591
sI1591
Vdropped
p1592
sI1592
Vlobster
p1593
sI1593
Vchoose
p1594
sI1594
Vlive
p1595
sI1595
Vpick
p1596
sI1596
Vpicking
p1597
sI1597
Vlobsters
p1598
sI1598
Vholds
p1599
sI1599
Vfeeling
p1600
sI1600
Vshowed
p1601
sI1601
Vpeole
p1602
sI1602
Vlifted
p1603
sI1603
Vselect
p1604
sI1604
Vshoulders
p1605
sI1605
Vrocking
p1606
sI1606
Vshoulder
p1607
sI1607
Vshrugs
p1608
sI1608
Vtorso
p1609
sI1609
Vgently
p1610
sI1610
Vrhythmic
p1611
sI1611
Vteen
p1612
sI1612
Vaged
p1613
sI1613
Vshrugging
p1614
sI1614
Vteam
p1615
sI1615
Vdrills
p1616
sI1616
Vfew
p1617
sI1617
Vkicked
p1618
sI1618
Vkicks
p1619
sI1619
Vpractice
p1620
sI1620
Vsix
p1621
sI1621
Vrunners
p1622
sI1622
Vlined
p1623
sI1623
Vline
p1624
sI1624
Vracetrack
p1625
sI1625
Vwaiting
p1626
sI1626
Vtell
p1627
sI1627
Vstart
p1628
sI1628
Vathletes
p1629
sI1629
Vrace
p1630
sI1630
Vready
p1631
sI1631
Vlining
p1632
sI1632
Vracers
p1633
sI1633
Vprepare
p1634
sI1634
Vclarinet
p1635
sI1635
Vperformed
p1636
sI1636
Vguiter
p1637
sI1637
Vfries
p1638
sI1638
Vdeep
p1639
sI1639
Vperiodically
p1640
sI1640
Vslotted
p1641
sI1641
Vwedges
p1642
sI1642
Vapollo
p1643
sI1643
Vcreed
p1644
sI1644
Vslugs
p1645
sI1645
Vrocky
p1646
sI1646
Vopponent
p1647
sI1647
Vboxing
p1648
sI1648
Vbalboa
p1649
sI1649
Vring
p1650
sI1650
Vboxers
p1651
sI1651
Vboxed
p1652
sI1652
Vboxer
p1653
sI1653
Varena
p1654
sI1654
Vtargets
p1655
sI1655
Vfar
p1656
sI1656
Vaim
p1657
sI1657
Vfired
p1658
sI1658
Vchili
p1659
sI1659
Vseasons
p1660
sI1660
Vadd
p1661
sI1661
Vcumin
p1662
sI1662
Vtablespoon
p1663
sI1663
Vbruce
p1664
sI1664
Vlee
p1665
sI1665
Vstudents
p1666
sI1666
Vkarate
p1667
sI1667
Vmartial
p1668
sI1668
Vart
p1669
sI1669
Vtechniques
p1670
sI1670
Vknocks
p1671
sI1671
Vstrikes
p1672
sI1672
Vskills
p1673
sI1673
Varts
p1674
sI1674
Vmany
p1675
sI1675
Vartists
p1676
sI1676
Vkick
p1677
sI1677
Vsurrounding
p1678
sI1678
Vfights
p1679
sI1679
Vothers
p1680
sI1680
Vclass
p1681
sI1681
Vfought
p1682
sI1682
Vpowdery
p1683
sI1683
Vflower
p1684
sI1684
Vpowdered
p1685
sI1685
Vsomoene
p1686
sI1686
Vstired
p1687
sI1687
Vassault
p1688
sI1688
Vak
p1689
sI1689
Vbullets
p1690
sI1690
Vdistance
p1691
sI1691
Vgarbage
p1692
sI1692
Vfull
p1693
sI1693
Vtimes
p1694
sI1694
Vbacon
p1695
sI1695
Varranged
p1696
sI1696
Vlattice
p1697
sI1697
Vgrid
p1698
sI1698
Vwoven
p1699
sI1699
Vten
p1700
sI1700
Vthey
p1701
sI1701
Vbraided
p1702
sI1702
Vshakes
p1703
sI1703
Vshake
p1704
sI1704
Vshaking
p1705
sI1705
Vgreet
p1706
sI1706
Vcame
p1707
sI1707
Vgreeted
p1708
sI1708
Vfills
p1709
sI1709
Vfilling
p1710
sI1710
Vcollecting
p1711
sI1711
Vsink
p1712
sI1712
Vmother
p1713
sI1713
Vchihuahua
p1714
sI1714
Vurinates
p1715
sI1715
Vpeeing
p1716
sI1716
Vpissing
p1717
sI1717
Vpees
p1718
sI1718
Vurinating
p1719
sI1719
Vapproaches
p1720
sI1720
Vmud
p1721
sI1721
Vpee
p1722
sI1722
Vbigger
p1723
sI1723
Vpeed
p1724
sI1724
Vurinated
p1725
sI1725
Vleg
p1726
sI1726
Votehr
p1727
sI1727
Vsmiling
p1728
sI1728
Vreads
p1729
sI1729
Vemail
p1730
sI1730
Vchecks
p1731
sI1731
Ve
p1732
sI1732
Vstraight
p1733
sI1733
Vchin
p1734
sI1734
Vscene
p1735
sI1735
Vswitches
p1736
sI1736
Vpersonal
p1737
sI1737
Vad
p1738
sI1738
Vmagazine
p1739
sI1739
Vromantic
p1740
sI1740
Vread
p1741
sI1741
Vpersonals
p1742
sI1742
Vharem
p1743
sI1743
Vcostumes
p1744
sI1744
Vbelly
p1745
sI1745
Vonlookers
p1746
sI1746
Varabic
p1747
sI1747
Vtrot
p1748
sI1748
Vgrassland
p1749
sI1749
Vgreenery
p1750
sI1750
Vridint
p1751
sI1751
Vgalloped
p1752
sI1752
Vtrotted
p1753
sI1753
Vinserting
p1754
sI1754
Vyellowish
p1755
sI1755
Vstuffs
p1756
sI1756
Vhandful
p1757
sI1757
Vprawn
p1758
sI1758
Vsqueeze
p1759
sI1759
Vstufs
p1760
sI1760
Vshrimp
p1761
sI1761
Vstuffing
p1762
sI1762
Vforming
p1763
sI1763
Vpatty
p1764
sI1764
Vfistful
p1765
sI1765
Vpaddy
p1766
sI1766
Vbroth
p1767
sI1767
Vreadymade
p1768
sI1768
Vvessel
p1769
sI1769
Vgas
p1770
sI1770
Vbutterfly
p1771
sI1771
Vtwirling
p1772
sI1772
Vswitch
p1773
sI1773
Vblade
p1774
sI1774
Vswitchblade
p1775
sI1775
Vtwisting
p1776
sI1776
Vwields
p1777
sI1777
Vcow
p1778
sI1778
Vhay
p1779
sI1779
Vwad
p1780
sI1780
Vchewing
p1781
sI1781
Vchewed
p1782
sI1782
Vgrasses
p1783
sI1783
Vvillage
p1784
sI1784
Vnative
p1785
sI1785
Vtownspeople
p1786
sI1786
Vcast
p1787
sI1787
Vsprinkles
p1788
sI1788
Vcucumbers
p1789
sI1789
Vsalting
p1790
sI1790
Vsprinking
p1791
sI1791
Vbits
p1792
sI1792
Vcucumber
p1793
sI1793
Vlying
p1794
sI1794
Vsnarling
p1795
sI1795
Vwagging
p1796
sI1796
Vsimultaneously
p1797
sI1797
Vgrowls
p1798
sI1798
Vlays
p1799
sI1799
Vwags
p1800
sI1800
Vlies
p1801
sI1801
Vwagged
p1802
sI1802
Vbiting
p1803
sI1803
Vfetches
p1804
sI1804
Vcanned
p1805
sI1805
Vtin
p1806
sI1806
Vbites
p1807
sI1807
Vdogfood
p1808
sI1808
Vteeth
p1809
sI1809
Vfound
p1810
sI1810
Vcarries
p1811
sI1811
Vretrieves
p1812
sI1812
Vso
p1813
sI1813
Vsized
p1814
sI1814
Vbreast
p1815
sI1815
Vtrotting
p1816
sI1816
Vcourse
p1817
sI1817
Vcompetition
p1818
sI1818
Vhors
p1819
sI1819
Vstenography
p1820
sI1820
Vkeys
p1821
sI1821
Vstenographer
p1822
sI1822
Vstenographers
p1823
sI1823
Vtyped
p1824
sI1824
Vstenograph
p1825
sI1825
Vstenotype
p1826
sI1826
Vrectangular
p1827
sI1827
Vdumps
p1828
sI1828
Vspaghetti
p1829
sI1829
Vbald
p1830
sI1830
Vbleeding
p1831
sI1831
Vscalp
p1832
sI1832
Vslit
p1833
sI1833
Vpattern
p1834
sI1834
Vpins
p1835
sI1835
Vdriven
p1836
sI1836
Vforehead
p1837
sI1837
Vstuck
p1838
sI1838
Vpin
p1839
sI1839
Vhorrifying
p1840
sI1840
Vsharp
p1841
sI1841
Vpenetrated
p1842
sI1842
Vmans
p1843
sI1843
Vinserted
p1844
sI1844
Vweird
p1845
sI1845
Vstaples
p1846
sI1846
Vpinhead
p1847
sI1847
Vbloody
p1848
sI1848
Vfaced
p1849
sI1849
Vmand
p1850
sI1850
Vmonster
p1851
sI1851
Vpounding
p1852
sI1852
Vsunny
p1853
sI1853
Veyes
p1854
sI1854
Vfried
p1855
sI1855
Vsizzling
p1856
sI1856
Vfry
p1857
sI1857
Vgrill
p1858
sI1858
Vgrilling
p1859
sI1859
Vroasting
p1860
sI1860
Vrack
p1861
sI1861
Vgrilled
p1862
sI1862
Vlifts
p1863
sI1863
Vtruck
p1864
sI1864
Vlifting
p1865
sI1865
Vpickup
p1866
sI1866
Vvehicle
p1867
sI1867
Vbumper
p1868
sI1868
Vjack
p1869
sI1869
Vnicholson
p1870
sI1870
Vpatted
p1871
sI1871
Vbathroom
p1872
sI1872
Vstain
p1873
sI1873
Vjacket
p1874
sI1874
Vattendant
p1875
sI1875
Vgentleman
p1876
sI1876
Vcoat
p1877
sI1877
Vtissue
p1878
sI1878
Vbutler
p1879
sI1879
Vattended
p1880
sI1880
Vcleaned
p1881
sI1881
Vrestroom
p1882
sI1882
Vwashroom
p1883
sI1883
Vtending
p1884
sI1884
Vwashes
p1885
sI1885
Vsh
p1886
sI1886
Virt
p1887
sI1887
Vspot
p1888
sI1888
Vwiped
p1889
sI1889
Vconversing
p1890
sI1890
Vspilt
p1891
sI1891
Vdrove
p1892
sI1892
Vtraveling
p1893
sI1893
Vfast
p1894
sI1894
Vsped
p1895
sI1895
Vbumpy
p1896
sI1896
Vferrets
p1897
sI1897
Vwander
p1898
sI1898
Vcages
p1899
sI1899
Vclimb
p1900
sI1900
Vnear
p1901
sI1901
Vshelf
p1902
sI1902
Vescaped
p1903
sI1903
Vskins
p1904
sI1904
Vseparating
p1905
sI1905
Vtrims
p1906
sI1906
Vtrimming
p1907
sI1907
Vtubular
p1908
sI1908
Vpurple
p1909
sI1909
Veggplant
p1910
sI1910
Vplant
p1911
sI1911
Vslender
p1912
sI1912
Vviolet
p1913
sI1913
Vbrinjals
p1914
sI1914
Vtube
p1915
sI1915
Vhides
p1916
sI1916
Vhollow
p1917
sI1917
Vscurried
p1918
sI1918
Vsqueezed
p1919
sI1919
Votter
p1920
sI1920
Vice
p1921
sI1921
Vglides
p1922
sI1922
Vbeaver
p1923
sI1923
Vuncooked
p1924
sI1924
Vracks
p1925
sI1925
Vribs
p1926
sI1926
Vapart
p1927
sI1927
Vspare
p1928
sI1928
Vbone
p1929
sI1929
Vstew
p1930
sI1930
Vsoup
p1931
sI1931
Vot
p1932
sI1932
Vsprinkling
p1933
sI1933
Vtossed
p1934
sI1934
Vsprinkled
p1935
sI1935
Vherbs
p1936
sI1936
Vdusted
p1937
sI1937
Vhooting
p1938
sI1938
Vaims
p1939
sI1939
Vsingle
p1940
sI1940
Vsqueals
p1941
sI1941
Vmanages
p1942
sI1942
Vstomach
p1943
sI1943
Vcement
p1944
sI1944
Vclmbing
p1945
sI1945
Vhard
p1946
sI1946
Vcrawl
p1947
sI1947
Vcantaloupe
p1948
sI1948
Vasian
p1949
sI1949
Vseafood
p1950
sI1950
Vbattered
p1951
sI1951
Vbreads
p1952
sI1952
Vdipped
p1953
sI1953
Vtempura
p1954
sI1954
Vshrimps
p1955
sI1955
Vcoated
p1956
sI1956
Vtill
p1957
sI1957
Vcrisp
p1958
sI1958
Vdrip
p1959
sI1959
Vtaken
p1960
sI1960
Vsail
p1961
sI1961
Vboat
p1962
sI1962
Vparasailing
p1963
sI1963
Vwindsurfing
p1964
sI1964
Vpara
p1965
sI1965
Vsailing
p1966
sI1966
Vleaned
p1967
sI1967
Vsailboat
p1968
sI1968
Vsailed
p1969
sI1969
Vindividuals
p1970
sI1970
Vjogging
p1971
sI1971
Vshore
p1972
sI1972
Vlake
p1973
sI1973
Vjogged
p1974
sI1974
Vstands
p1975
sI1975
Vstood
p1976
sI1976
Vbreaded
p1977
sI1977
Vbubbling
p1978
sI1978
Vuntil
p1979
sI1979
Vscratches
p1980
sI1980
Vbath
p1981
sI1981
Vtub
p1982
sI1982
Vscratching
p1983
sI1983
Vpanel
p1984
sI1984
Vsounds
p1985
sI1985
Vpawing
p1986
sI1986
Vbathtub
p1987
sI1987
Vrubs
p1988
sI1988
Vframed
p1989
sI1989
Vscatched
p1990
sI1990
Vshowering
p1991
sI1991
Vbathing
p1992
sI1992
Vshower
p1993
sI1993
Vsilhouetted
p1994
sI1994
Vwashing
p1995
sI1995
Vsexy
p1996
sI1996
Vsoaping
p1997
sI1997
Vsweeping
p1998
sI1998
Vflooded
p1999
sI1999
Vsludge
p2000
sI2000
Vhome
p2001
sI2001
Vflood
p2002
sI2002
Vmops
p2003
sI2003
Vdirty
p2004
sI2004
Vswept
p2005
sI2005
Vwaters
p2006
sI2006
Vsweep
p2007
sI2007
Vthan
p2008
sI2008
Vpuddle
p2009
sI2009
Vbiker
p2010
sI2010
Vcausing
p2011
sI2011
Vskids
p2012
sI2012
Vskidded
p2013
sI2013
Vyounger
p2014
sI2014
Vshirt
p2015
sI2015
Vconfronted
p2016
sI2016
Vdad
p2017
sI2017
Vindian
p2018
sI2018
Vdiscussion
p2019
sI2019
Vdemonstration
p2020
sI2020
Vfinely
p2021
sI2021
Vtreadmill
p2022
sI2022
Vtreadmills
p2023
sI2023
Vworking
p2024
sI2024
Vgym
p2025
sI2025
Vannoyed
p2026
sI2026
Vexercising
p2027
sI2027
Vwaits
p2028
sI2028
Vbrings
p2029
sI2029
Vsaki
p2030
sI2030
Vdelivers
p2031
sI2031
Vkimono
p2032
sI2032
Vwine
p2033
sI2033
Vbringing
p2034
sI2034
Vdelivering
p2035
sI2035
Vliquor
p2036
sI2036
Vcustomers
p2037
sI2037
Vhallway
p2038
sI2038
Vbilling
p2039
sI2039
Vbeer
p2040
sI2040
Vhall
p2041
sI2041
Vskiing
p2042
sI2042
Vmoutain
p2043
sI2043
Vsnowboarding
p2044
sI2044
Vdownhill
p2045
sI2045
Vsnowboards
p2046
sI2046
Vsnowy
p2047
sI2047
Vmountains
p2048
sI2048
Vskier
p2049
sI2049
Vsnowboarder
p2050
sI2050
Vskating
p2051
sI2051
Vskiied
p2052
sI2052
Vdessert
p2053
sI2053
Vgallops
p2054
sI2054
Vdesert
p2055
sI2055
Vgear
p2056
sI2056
Vvaquero
p2057
sI2057
Vflat
p2058
sI2058
Vbutcher
p2059
sI2059
Vos
p2060
sI2060
Vcleaver
p2061
sI2061
Vshanked
p2062
sI2062
Vmeet
p2063
sI2063
Vends
p2064
sI2064
Vgathering
p2065
sI2065
Vstuffed
p2066
sI2066
Vcrack
p2067
sI2067
Vflees
p2068
sI2068
Vtremors
p2069
sI2069
Vearth
p2070
sI2070
Vquake
p2071
sI2071
Vbeneath
p2072
sI2072
Voutrun
p2073
sI2073
Vsplitting
p2074
sI2074
Vprotective
p2075
sI2075
Vindoor
p2076
sI2076
Vscaling
p2077
sI2077
Vcompletes
p2078
sI2078
Vchallenge
p2079
sI2079
Vclimed
p2080
sI2080
Vslab
p2081
sI2081
Vconcrete
p2082
sI2082
Vprone
p2083
sI2083
Vsledge
p2084
sI2084
Vcinder
p2085
sI2085
Vblocks
p2086
sI2086
Vbrick
p2087
sI2087
Vbroken
p2088
sI2088
Vstone
p2089
sI2089
Vsledghammer
p2090
sI2090
Vbreak
p2091
sI2091
Vchimpanzee
p2092
sI2092
Voutfit
p2093
sI2093
Vactions
p2094
sI2094
Vkickboxing
p2095
sI2095
Vlearning
p2096
sI2096
Vpractices
p2097
sI2097
Vdemonstrated
p2098
sI2098
Vsympathize
p2099
sI2099
Vcrys
p2100
sI2100
Vpretending
p2101
sI2101
Vcry
p2102
sI2102
Vweeping
p2103
sI2103
Vham
p2104
sI2104
Vcried
p2105
sI2105
Vmovements
p2106
sI2106
Villustrate
p2107
sI2107
Vparking
p2108
sI2108
Vcrashed
p2109
sI2109
Vpavement
p2110
sI2110
Vsidewalk
p2111
sI2111
Vhit
p2112
sI2112
Vparked
p2113
sI2113
Vrams
p2114
sI2114
Vcars
p2115
sI2115
Vcurb
p2116
sI2116
Vthird
p2117
sI2117
Vpedestrian
p2118
sI2118
Vwalkway
p2119
sI2119
Vinterviewed
p2120
sI2120
Vevent
p2121
sI2121
Vamongst
p2122
sI2122
Vspoke
p2123
sI2123
Vrally
p2124
sI2124
Vswishes
p2125
sI2125
Vmore
p2126
sI2126
Vhole
p2127
sI2127
Vdrill
p2128
sI2128
Vdrilling
p2129
sI2129
Vyakati
p2130
sI2130
Vmachinthi
p2131
sI2131
Vlakadama
p2132
sI2132
Vkanu
p2133
sI2133
Vpade
p2134
sI2134
Vdrilled
p2135
sI2135
Vflashes
p2136
sI2136
Vlistening
p2137
sI2137
Vdifferent
p2138
sI2138
Vlocations
p2139
sI2139
Vupson
p2140
sI2140
Vvery
p2141
sI2141
Vartificial
p2142
sI2142
Vengaged
p2143
sI2143
Vharnessed
p2144
sI2144
Vbarefoot
p2145
sI2145
Vfacade
p2146
sI2146
Vunpeeled
p2147
sI2147
Voutfield
p2148
sI2148
Vtrips
p2149
sI2149
Vcable
p2150
sI2150
Vbalance
p2151
sI2151
Vimpressive
p2152
sI2152
Valmost
p2153
sI2153
Vspectacular
p2154
sI2154
Vboundary
p2155
sI2155
Vswung
p2156
sI2156
Vcubes
p2157
sI2157
Vrectangles
p2158
sI2158
Vvertical
p2159
sI2159
Vswallows
p2160
sI2160
Vminnow
p2161
sI2161
Vswallowed
p2162
sI2162
Vtadpole
p2163
sI2163
Vwa
p2164
sI2164
Vter
p2165
sI2165
Vcontains
p2166
sI2166
Vswallowing
p2167
sI2167
Vliving
p2168
sI2168
Vcorn
p2169
sI2169
Vwell
p2170
sI2170
Vcurry
p2171
sI2171
Vchefs
p2172
sI2172
Vmovie
p2173
sI2173
Velephant
p2174
sI2174
Vleads
p2175
sI2175
Vadult
p2176
sI2176
Vpanicking
p2177
sI2177
Vrushing
p2178
sI2178
Vparent
p2179
sI2179
Vsneezes
p2180
sI2180
Velephants
p2181
sI2181
Vscared
p2182
sI2182
Vstartled
p2183
sI2183
Vcalves
p2184
sI2184
Vriver
p2185
sI2185
Velephany
p2186
sI2186
Vstartles
p2187
sI2187
Vchristmas
p2188
sI2188
Vcard
p2189
sI2189
Vornament
p2190
sI2190
Vdisplaying
p2191
sI2191
Viphone
p2192
sI2192
Vattaches
p2193
sI2193
Vipod
p2194
sI2194
Vgreeting
p2195
sI2195
Vsmartphone
p2196
sI2196
Vattached
p2197
sI2197
Vdigital
p2198
sI2198
Vgretting
p2199
sI2199
Vspreading
p2200
sI2200
Vsplit
p2201
sI2201
Vloaf
p2202
sI2202
Vbuttering
p2203
sI2203
Vsmearing
p2204
sI2204
Vsmears
p2205
sI2205
Vspreads
p2206
sI2206
Vbuttered
p2207
sI2207
Vmike
p2208
sI2208
Vdice
p2209
sI2209
Vhorizontally
p2210
sI2210
Vvertically
p2211
sI2211
Vskateboarding
p2212
sI2212
Vpipe
p2213
sI2213
Vfails
p2214
sI2214
Vfreestyle
p2215
sI2215
Vskate
p2216
sI2216
Vramp
p2217
sI2217
Vskateboard
p2218
sI2218
Vsummersaults
p2219
sI2219
Vlanding
p2220
sI2220
Vskateboards
p2221
sI2221
Vskateboarder
p2222
sI2222
Vhalfpipe
p2223
sI2223
Vskater
p2224
sI2224
Vskates
p2225
sI2225
Vtony
p2226
sI2226
Vhawk
p2227
sI2227
Vtiger
p2228
sI2228
Vclub
p2229
sI2229
Vvegtables
p2230
sI2230
Vpiling
p2231
sI2231
Vtower
p2232
sI2232
Vteppanyaki
p2233
sI2233
Vstacks
p2234
sI2234
Varranges
p2235
sI2235
Vstructure
p2236
sI2236
Vpyramid
p2237
sI2237
Vstacking
p2238
sI2238
Vpiled
p2239
sI2239
Vcheff
p2240
sI2240
Vtelling
p2241
sI2241
Vstory
p2242
sI2242
Vmasks
p2243
sI2243
Vcreatures
p2244
sI2244
Vdesigned
p2245
sI2245
Vsimulate
p2246
sI2246
Vundersea
p2247
sI2247
Vheight
p2248
sI2248
Vtubes
p2249
sI2249
Vfixed
p2250
sI2250
Vsignaling
p2251
sI2251
Vmonsters
p2252
sI2252
Vyells
p2253
sI2253
Vactors
p2254
sI2254
Vdrama
p2255
sI2255
Vactor
p2256
sI2256
Vpirate
p2257
sI2257
Vdragon
p2258
sI2258
Vprop
p2259
sI2259
Vatop
p2260
sI2260
Vchinese
p2261
sI2261
Vparticipate
p2262
sI2262
Vfestive
p2263
sI2263
Vcelebration
p2264
sI2264
Vparty
p2265
sI2265
Vfun
p2266
sI2266
Vparade
p2267
sI2267
Vkneading
p2268
sI2268
Vl
p2269
sI2269
Vmashing
p2270
sI2270
Vkneads
p2271
sI2271
Vbaker
p2272
sI2272
Vmarzipan
p2273
sI2273
Vbraiding
p2274
sI2274
Vhair
p2275
sI2275
Vstyling
p2276
sI2276
Vpart
p2277
sI2277
Vbraids
p2278
sI2278
Vsections
p2279
sI2279
Vscrunched
p2280
sI2280
Vtwists
p2281
sI2281
Vfixes
p2282
sI2282
Vjuggling
p2283
sI2283
Vfoot
p2284
sI2284
Vsoccar
p2285
sI2285
Vyolk
p2286
sI2286
Vwok
p2287
sI2287
Vleek
p2288
sI2288
Vdiagonal
p2289
sI2289
Vwelsh
p2290
sI2290
Vleak
p2291
sI2291
Vleeks
p2292
sI2292
Vbutterflies
p2293
sI2293
Vdiagonally
p2294
sI2294
Vshrimp's
p2295
sI2295
Vstarted
p2296
sI2296
Vworm
p2297
sI2297
Vdetailed
p2298
sI2298
Vbusty
p2299
sI2299
Vworks
p2300
sI2300
Vaerobics
p2301
sI2301
Vweight
p2302
sI2302
Vweights
p2303
sI2303
Vweighted
p2304
sI2304
Vexercised
p2305
sI2305
Vif
p2306
sI2306
Vscratch
p2307
sI2307
Vtire
p2308
sI2308
Vwriggling
p2309
sI2309
Vbutt
p2310
sI2310
Vraised
p2311
sI2311
Vwiggles
p2312
sI2312
Vlogs
p2313
sI2313
Vreach
p2314
sI2314
Vlog
p2315
sI2315
Vwiggling
p2316
sI2316
Vflooring
p2317
sI2317
Vlotus
p2318
sI2318
Vroot
p2319
sI2319
Vpotatos
p2320
sI2320
Vhotel
p2321
sI2321
Vmaid
p2322
sI2322
Vhousekeeping
p2323
sI2323
Vassistant
p2324
sI2324
Vstraightens
p2325
sI2325
Vpillows
p2326
sI2326
Vhousekeeper
p2327
sI2327
Vshaving
p2328
sI2328
Vsoap
p2329
sI2329
Vlathering
p2330
sI2330
Vshave
p2331
sI2331
Vussain
p2332
sI2332
Vbolt
p2333
sI2333
Vwinning
p2334
sI2334
Vsprinting
p2335
sI2335
Vfinish
p2336
sI2336
Vcompeting
p2337
sI2337
Vmeters
p2338
sI2338
Vracing
p2339
sI2339
Vcompete
p2340
sI2340
Vrunner
p2341
sI2341
Vovertakes
p2342
sI2342
Vleader
p2343
sI2343
Vraced
p2344
sI2344
Vsprinted
p2345
sI2345
Vbreading
p2346
sI2346
Vbreadcrumbs
p2347
sI2347
Vdredges
p2348
sI2348
Vcrumbs
p2349
sI2349
Vcrust
p2350
sI2350
Vpie
p2351
sI2351
Vcoats
p2352
sI2352
Vcutlet
p2353
sI2353
Vloin
p2354
sI2354
Vlaldy
p2355
sI2355
Vgerbil
p2356
sI2356
Vwheel
p2357
sI2357
Vpossibly
p2358
sI2358
Vhedgehog
p2359
sI2359
Vhamster
p2360
sI2360
Vspinner
p2361
sI2361
Vporcupine
p2362
sI2362
Vhusky
p2363
sI2363
Vpup
p2364
sI2364
Vstare
p2365
sI2365
Vhappily
p2366
sI2366
Venclosure
p2367
sI2367
Vsquealing
p2368
sI2368
Vresponse
p2369
sI2369
Vtopless
p2370
sI2370
Vsit
p2371
sI2371
Vpen
p2372
sI2372
Vportable
p2373
sI2373
Vwaited
p2374
sI2374
Vwatch
p2375
sI2375
Vgarden
p2376
sI2376
Vraces
p2377
sI2377
Vbackyard
p2378
sI2378
Vlionel
p2379
sI2379
Vrichie
p2380
sI2380
Vritchie
p2381
sI2381
Vtennis
p2382
sI2382
Vrather
p2383
sI2383
Vaggressively
p2384
sI2384
Vmicro
p2385
sI2385
Vwave
p2386
sI2386
Vgrooming
p2387
sI2387
Vtongue
p2388
sI2388
Vgrooms
p2389
sI2389
Vgate
p2390
sI2390
Vnutshells
p2391
sI2391
Vseeds
p2392
sI2392
Vsunflower
p2393
sI2393
Vcheeks
p2394
sI2394
Vdachshund
p2395
sI2395
Vinot
p2396
sI2396
Vpaddles
p2397
sI2397
Vswam
p2398
sI2398
Vmaneuvering
p2399
sI2399
Vlot
p2400
sI2400
Vtossing
p2401
sI2401
Vkeep
p2402
sI2402
Vuse
p2403
sI2403
Vcats
p2404
sI2404
Vrubbed
p2405
sI2405
Vvial
p2406
sI2406
Vmedicine
p2407
sI2407
Vspiral
p2408
sI2408
Voutline
p2409
sI2409
Vdrawn
p2410
sI2410
Vswirl
p2411
sI2411
Vtracing
p2412
sI2412
Vcurly
p2413
sI2413
Vcue
p2414
sI2414
Vdesign
p2415
sI2415
Vpenciled
p2416
sI2416
Vwatching
p2417
sI2417
Vspider
p2418
sI2418
Vbug
p2419
sI2419
Vintently
p2420
sI2420
Vinsect
p2421
sI2421
Vhissing
p2422
sI2422
Vclosely
p2423
sI2423
Vexamining
p2424
sI2424
Vbeetle
p2425
sI2425
Vintrigued
p2426
sI2426
Vsmaller
p2427
sI2427
Vboar
p2428
sI2428
Vtrees
p2429
sI2429
Vsalad
p2430
sI2430
Vheavy
p2431
sI2431
Vobese
p2432
sI2432
Vextremely
p2433
sI2433
Vmorbidly
p2434
sI2434
Vsweeps
p2435
sI2435
Vbroom
p2436
sI2436
Vbrowned
p2437
sI2437
Vhamburger
p2438
sI2438
Vkey
p2439
sI2439
Vpiano
p2440
sI2440
Vconstruction
p2441
sI2441
Vworkers
p2442
sI2442
Vbeams
p2443
sI2443
Vposts
p2444
sI2444
Vrafters
p2445
sI2445
Vpathway
p2446
sI2446
Vfasten
p2447
sI2447
Vchords
p2448
sI2448
Vbacks
p2449
sI2449
Vgirders
p2450
sI2450
Vplatform
p2451
sI2451
Vpillar
p2452
sI2452
Vfox
p2453
sI2453
Vtails
p2454
sI2454
Vfur
p2455
sI2455
Vwire
p2456
sI2456
Vsafety
p2457
sI2457
Vagitates
p2458
sI2458
Vmoneky
p2459
sI2459
Vantagonizes
p2460
sI2460
Vpestering
p2461
sI2461
Vpuled
p2462
sI2462
Vgrabbed
p2463
sI2463
Vtiled
p2464
sI2464
Vcobbled
p2465
sI2465
Vcobble
p2466
sI2466
Vsize
p2467
sI2467
Vconvertible
p2468
sI2468
Vbuggy
p2469
sI2469
Vfender
p2470
sI2470
Vtears
p2471
sI2471
Vtased
p2472
sI2472
Vsandwich
p2473
sI2473
Vemptying
p2474
sI2474
Vcontent
p2475
sI2475
Vwatermelon
p2476
sI2476
Vmelon
p2477
sI2477
Vpepperonis
p2478
sI2478
Vpizza
p2479
sI2479
Vfork
p2480
sI2480
Vpepperoni
p2481
sI2481
Vpepperonies
p2482
sI2482
Vpicked
p2483
sI2483
Vsalami
p2484
sI2484
Vremoved
p2485
sI2485
Vmarches
p2486
sI2486
Vsoldiers
p2487
sI2487
Vparading
p2488
sI2488
Vmarching
p2489
sI2489
Vshirts
p2490
sI2490
Vjackets
p2491
sI2491
Varmy
p2492
sI2492
Vcentre
p2493
sI2493
Vformation
p2494
sI2494
Vuniforms
p2495
sI2495
Vmarch
p2496
sI2496
Vmarched
p2497
sI2497
Vfence
p2498
sI2498
Vhurdles
p2499
sI2499
Vhorseback
p2500
sI2500
Vobstacle
p2501
sI2501
Vjump
p2502
sI2502
Vsill
p2503
sI2503
Vte
p2504
sI2504
Vdistant
p2505
sI2505
Vaiming
p2506
sI2506
Vyards
p2507
sI2507
Vtoo
p2508
sI2508
Vinch
p2509
sI2509
Vdiced
p2510
sI2510
Vsquares
p2511
sI2511
Vsalted
p2512
sI2512
Vbecomes
p2513
sI2513
Vboth
p2514
sI2514
Vsides
p2515
sI2515
Vsteamed
p2516
sI2516
Vangry
p2517
sI2517
Vgrowling
p2518
sI2518
Vswiping
p2519
sI2519
Vdining
p2520
sI2520
Vpurring
p2521
sI2521
Vangrily
p2522
sI2522
Vviolently
p2523
sI2523
Vcontinually
p2524
sI2524
Vattacks
p2525
sI2525
Vafraid
p2526
sI2526
Vfrightened
p2527
sI2527
Vstraightening
p2528
sI2528
Viron
p2529
sI2529
Vfixing
p2530
sI2530
Vstraighten
p2531
sI2531
Vflattening
p2532
sI2532
Vstraightener
p2533
sI2533
Vstraightened
p2534
sI2534
Vrandomly
p2535
sI2535
Vsnipping
p2536
sI2536
Vbank
p2537
sI2537
Vguitars
p2538
sI2538
Vbell
p2539
sI2539
Vcapsicum
p2540
sI2540
Vcored
p2541
sI2541
Vpumpkins
p2542
sI2542
Vpowdering
p2543
sI2543
Vbronzing
p2544
sI2544
Vouter
p2545
sI2545
Vareas
p2546
sI2546
Vcheek
p2547
sI2547
Vtemple
p2548
sI2548
Vpuffing
p2549
sI2549
Vhere
p2550
sI2550
Vlocation
p2551
sI2551
Vforelegs
p2552
sI2552
Velevated
p2553
sI2553
Vhandstand
p2554
sI2554
Vbushes
p2555
sI2555
Vjazz
p2556
sI2556
Vprickly
p2557
sI2557
Vgive
p2558
sI2558
Vcrushing
p2559
sI2559
Vtoy
p2560
sI2560
Vdoberman
p2561
sI2561
Vpincher
p2562
sI2562
Vpinscher
p2563
sI2563
Vchews
p2564
sI2564
Vwhale
p2565
sI2565
Vdoll
p2566
sI2566
Vchew
p2567
sI2567
Vtoys
p2568
sI2568
Vduplicate
p2569
sI2569
Vmannequin
p2570
sI2570
Vpunching
p2571
sI2571
Vfists
p2572
sI2572
Vdummy
p2573
sI2573
Vmanikin
p2574
sI2574
Vmanican
p2575
sI2575
Vkickboxes
p2576
sI2576
Vpunches
p2577
sI2577
Veventually
p2578
sI2578
Vpracticed
p2579
sI2579
Vboogie
p2580
sI2580
Vboards
p2581
sI2581
Vsurfs
p2582
sI2582
Vwaterpark
p2583
sI2583
Vboarding
p2584
sI2584
Vagains
p2585
sI2585
Vcurrent
p2586
sI2586
Vsurfing
p2587
sI2587
Vsurf
p2588
sI2588
Vsurfboard
p2589
sI2589
Vspun
p2590
sI2590
Vlightening
p2591
sI2591
Vdying
p2592
sI2592
Vdieing
p2593
sI2593
Vrevive
p2594
sI2594
Vdies
p2595
sI2595
Vwounded
p2596
sI2596
Vwailing
p2597
sI2597
Vcollapses
p2598
sI2598
Vlines
p2599
sI2599
Vinjured
p2600
sI2600
Vfiddle
p2601
sI2601
Vplucking
p2602
sI2602
Vbow
p2603
sI2603
Vstrums
p2604
sI2604
Vinstead
p2605
sI2605
Vukelele
p2606
sI2606
Vhugging
p2607
sI2607
Vforcibly
p2608
sI2608
Vhugs
p2609
sI2609
Vsmooch
p2610
sI2610
Vrichard
p2611
sI2611
Vgere
p2612
sI2612
Vshilpa
p2613
sI2613
Vshetty
p2614
sI2614
Vactress
p2615
sI2615
Vhugged
p2616
sI2616
Vkart
p2617
sI2617
Vtrolley
p2618
sI2618
Vgrocery
p2619
sI2619
Vcart
p2620
sI2620
Vmoonwalking
p2621
sI2621
Vmoonwalks
p2622
sI2622
Vsupermarket
p2623
sI2623
Vtrolleys
p2624
sI2624
Vshopper
p2625
sI2625
Vaisle
p2626
sI2626
Vpitcher
p2627
sI2627
Vplateful
p2628
sI2628
Vmarinara
p2629
sI2629
Vnuts
p2630
sI2630
Vsunflower's
p2631
sI2631
Vtrail
p2632
sI2632
Vhanseter
p2633
sI2633
Vcloset
p2634
sI2634
Vgrim
p2635
sI2635
Vcupboard
p2636
sI2636
Vorganized
p2637
sI2637
Vus
p2638
sI2638
Vwhat's
p2639
sI2639
Vsnowboard
p2640
sI2640
Vpoles
p2641
sI2641
Vrail
p2642
sI2642
Vbars
p2643
sI2643
Vbaboon
p2644
sI2644
Vgazelle
p2645
sI2645
Vattacked
p2646
sI2646
Vdeer
p2647
sI2647
Vkidnapping
p2648
sI2648
Vcharging
p2649
sI2649
Vlatter
p2650
sI2650
Vfawn
p2651
sI2651
Vantelope
p2652
sI2652
Vstyle
p2653
sI2653
Vtow
p2654
sI2654
Vkung
p2655
sI2655
Vfu
p2656
sI2656
Vsparring
p2657
sI2657
Vwildly
p2658
sI2658
Vpupply
p2659
sI2659
Vfenced
p2660
sI2660
Vswords
p2661
sI2661
Vfake
p2662
sI2662
Vweapons
p2663
sI2663
Vwar
p2664
sI2664
Vswoard
p2665
sI2665
Vbattle
p2666
sI2666
Varmies
p2667
sI2667
Vclash
p2668
sI2668
Vbright
p2669
sI2669
Vtriangle
p2670
sI2670
Vlight
p2671
sI2671
Vshining
p2672
sI2672
Vextends
p2673
sI2673
Voutstretched
p2674
sI2674
Vgazing
p2675
sI2675
Vpalm
p2676
sI2676
Vtriangular
p2677
sI2677
Vreaching
p2678
sI2678
Vtriforce
p2679
sI2679
Vsymbol
p2680
sI2680
Vmodels
p2681
sI2681
Vlinking
p2682
sI2682
Vgoal
p2683
sI2683
Vscores
p2684
sI2684
Vscoring
p2685
sI2685
Vscore
p2686
sI2686
Vjackal
p2687
sI2687
Vprey
p2688
sI2688
Vprairie
p2689
sI2689
Vcoyote
p2690
sI2690
Vspace
p2691
sI2691
Vreverse
p2692
sI2692
Vvan
p2693
sI2693
Vdriveway
p2694
sI2694
Vautomatic
p2695
sI2695
Vblocked
p2696
sI2696
Vlane
p2697
sI2697
Vbacked
p2698
sI2698
Vdrive
p2699
sI2699
Vbmx
p2700
sI2700
Vwrought
p2701
sI2701
Vnarrow
p2702
sI2702
Vbi
p2703
sI2703
Vlands
p2704
sI2704
Vsculpting
p2705
sI2705
Vchisels
p2706
sI2706
Vartifact
p2707
sI2707
Vcarving
p2708
sI2708
Vsanding
p2709
sI2709
Vsculpturing
p2710
sI2710
Vbronze
p2711
sI2711
Vgod
p2712
sI2712
Vtraditional
p2713
sI2713
Vfigures
p2714
sI2714
Vsculptors
p2715
sI2715
Vcarve
p2716
sI2716
Vreligious
p2717
sI2717
Vicons
p2718
sI2718
Vfigurines
p2719
sI2719
Vchiseling
p2720
sI2720
Vsugar
p2721
sI2721
Vmowing
p2722
sI2722
Vsmile
p2723
sI2723
Vcreepily
p2724
sI2724
Vwide
p2725
sI2725
Veyed
p2726
sI2726
Vgrin
p2727
sI2727
Vskipping
p2728
sI2728
Vdeclare
p2729
sI2729
Vnigh
p2730
sI2730
Vunrealistically
p2731
sI2731
Vweirdly
p2732
sI2732
Vcreepy
p2733
sI2733
Vmanner
p2734
sI2734
Vpushed
p2735
sI2735
Vmower
p2736
sI2736
Vtoting
p2737
sI2737
Vnight
p2738
sI2738
Vparks
p2739
sI2739
Vheadlights
p2740
sI2740
Vstop
p2741
sI2741
Vstopped
p2742
sI2742
Vlet
p2743
sI2743
Vbadger
p2744
sI2744
Vdigs
p2745
sI2745
Vburrowing
p2746
sI2746
Vdigging
p2747
sI2747
Vburrow
p2748
sI2748
Vwhose
p2749
sI2749
Vvisible
p2750
sI2750
Vdug
p2751
sI2751
Vmole
p2752
sI2752
Vbowls
p2753
sI2753
Vupright
p2754
sI2754
Vfacing
p2755
sI2755
Vtailed
p2756
sI2756
Vhaunches
p2757
sI2757
Vdrivong
p2758
sI2758
Volive
p2759
sI2759
Voils
p2760
sI2760
Vdrizzles
p2761
sI2761
Vwhips
p2762
sI2762
Vbeater
p2763
sI2763
Vfondling
p2764
sI2764
Vsucks
p2765
sI2765
Vindex
p2766
sI2766
Vfindertip
p2767
sI2767
Vfemale
p2768
sI2768
Vstretch
p2769
sI2769
Vmarathon
p2770
sI2770
Vfemales
p2771
sI2771
Vcompeted
p2772
sI2772
Vcompetitively
p2773
sI2773
Vplywood
p2774
sI2774
Vcuttng
p2775
sI2775
Veasily
p2776
sI2776
Vspoonfuls
p2777
sI2777
Vjar
p2778
sI2778
Vspooning
p2779
sI2779
Vseasing
p2780
sI2780
Vbaguette
p2781
sI2781
Voutdoors
p2782
sI2782
Vfocused
p2783
sI2783
Vpoint
p2784
sI2784
Vshots
p2785
sI2785
Vplane
p2786
sI2786
Vflies
p2787
sI2787
Vmissile
p2788
sI2788
Vemerges
p2789
sI2789
Vstreaks
p2790
sI2790
Vjet
p2791
sI2791
Vascends
p2792
sI2792
Vflying
p2793
sI2793
Vlaunching
p2794
sI2794
Vsoars
p2795
sI2795
Vbursting
p2796
sI2796
Vscreamed
p2797
sI2797
Vflew
p2798
sI2798
Vmissle
p2799
sI2799
Vchocolate
p2800
sI2800
Vsmoothie
p2801
sI2801
Vliqud
p2802
sI2802
Vmilkshake
p2803
sI2803
Vtumblers
p2804
sI2804
Vbarraged
p2805
sI2805
Vriddled
p2806
sI2806
Vholes
p2807
sI2807
Vfragments
p2808
sI2808
Vappearing
p2809
sI2809
Vmetallic
p2810
sI2810
Vtrunk
p2811
sI2811
Vkinds
p2812
sI2812
Vkidney
p2813
sI2813
Vsplits
p2814
sI2814
Vcauliflower
p2815
sI2815
Vdrunk
p2816
sI2816
Vpost
p2817
sI2817
Vunsteady
p2818
sI2818
Vstruggles
p2819
sI2819
Vwheels
p2820
sI2820
Vcircles
p2821
sI2821
Vorangutan
p2822
sI2822
Vprimate
p2823
sI2823
Vtricycle
p2824
sI2824
Vwaving
p2825
sI2825
Vcorner
p2826
sI2826
Vsteering
p2827
sI2827
Vprawns
p2828
sI2828
Vskewered
p2829
sI2829
Vskewers
p2830
sI2830
Vshimp
p2831
sI2831
Vfirst
p2832
sI2832
Vwrestling
p2833
sI2833
Vunderwear
p2834
sI2834
Vwrestle
p2835
sI2835
Vwrestled
p2836
sI2836
Vstalk
p2837
sI2837
Vflowerette
p2838
sI2838
Vorder
p2839
sI2839
Vhotplate
p2840
sI2840
Vutensil
p2841
sI2841
Vmashed
p2842
sI2842
Vyam
p2843
sI2843
Vbulldog
p2844
sI2844
Vwading
p2845
sI2845
Vretrieve
p2846
sI2846
Vlow
p2847
sI2847
Vlevel
p2848
sI2848
Vfetching
p2849
sI2849
Vshallow
p2850
sI2850
Vwaded
p2851
sI2851
Vknotted
p2852
sI2852
Vsplashing
p2853
sI2853
Vshimmied
p2854
sI2854
Vbasketball
p2855
sI2855
Vrim
p2856
sI2856
Vpassed
p2857
sI2857
Vreceives
p2858
sI2858
Vpass
p2859
sI2859
Vslam
p2860
sI2860
Vdunk
p2861
sI2861
Vdribled
p2862
sI2862
Vlamp
p2863
sI2863
Vyoungster
p2864
sI2864
Vshaves
p2865
sI2865
Vfresh
p2866
sI2866
Vparsley
p2867
sI2867
Vbundle
p2868
sI2868
Vleafy
p2869
sI2869
Vcoriander
p2870
sI2870
Vstems
p2871
sI2871
Vfolds
p2872
sI2872
Vtortilla
p2873
sI2873
Vcheesy
p2874
sI2874
Vquesadilla
p2875
sI2875
Vfolding
p2876
sI2876
Vtortila
p2877
sI2877
Vcrepe
p2878
sI2878
Vsoft
p2879
sI2879
Vtaco
p2880
sI2880
Vritually
p2881
sI2881
Vcolorful
p2882
sI2882
Vattire
p2883
sI2883
Vflag
p2884
sI2884
Vritual
p2885
sI2885
Vtribal
p2886
sI2886
Vceremonisl
p2887
sI2887
Vdancer
p2888
sI2888
Vgazebo
p2889
sI2889
Vgarlands
p2890
sI2890
Vflowers
p2891
sI2891
Vdecorated
p2892
sI2892
Vexchange
p2893
sI2893
Vmarriage
p2894
sI2894
Vdais
p2895
sI2895
Vnecks
p2896
sI2896
Vleis
p2897
sI2897
Vtent
p2898
sI2898
Vcanopy
p2899
sI2899
Vvisiting
p2900
sI2900
Vwreaths
p2901
sI2901
Vother's
p2902
sI2902
Vmarrying
p2903
sI2903
Vlei
p2904
sI2904
Vneck
p2905
sI2905
Vgarland
p2906
sI2906
Vparticipated
p2907
sI2907
Vceremony
p2908
sI2908
Vpagoda
p2909
sI2909
Vassemble
p2910
sI2910
Vchoreographed
p2911
sI2911
Vpier
p2912
sI2912
Vsynchronized
p2913
sI2913
Vdock
p2914
sI2914
Vtroupe
p2915
sI2915
Vdancers
p2916
sI2916
Vunison
p2917
sI2917
Vsync
p2918
sI2918
Vnewspaper
p2919
sI2919
Vnews
p2920
sI2920
Vcushioned
p2921
sI2921
Vfuel
p2922
sI2922
Vgasoline
p2923
sI2923
Vbonfire
p2924
sI2924
Vpetrol
p2925
sI2925
Vstack
p2926
sI2926
Vfirewood
p2927
sI2927
Vlots
p2928
sI2928
Vequal
p2929
sI2929
Vjockey
p2930
sI2930
Vperimeter
p2931
sI2931
Vprances
p2932
sI2932
Vstadium
p2933
sI2933
Vshow
p2934
sI2934
Vbicylce
p2935
sI2935
Vpatting
p2936
sI2936
Vtummy
p2937
sI2937
Vrelaxing
p2938
sI2938
Vpats
p2939
sI2939
Vbackside
p2940
sI2940
Vthumps
p2941
sI2941
Vlaughing
p2942
sI2942
Vgiggling
p2943
sI2943
Vhowls
p2944
sI2944
Vlaughter
p2945
sI2945
Vchuckling
p2946
sI2946
Vlaughed
p2947
sI2947
Vlaughs
p2948
sI2948
Vhysterically
p2949
sI2949
Vheartily
p2950
sI2950
Vacts
p2951
sI2951
Vhappy
p2952
sI2952
Vjumproping
p2953
sI2953
Voverweight
p2954
sI2954
Vcricketer
p2955
sI2955
Vsportsman
p2956
sI2956
Verror
p2957
sI2957
Vmistake
p2958
sI2958
Vscallions
p2959
sI2959
Vchives
p2960
sI2960
Vastro
p2961
sI2961
Vturf
p2962
sI2962
Vprancing
p2963
sI2963
Vfollowing
p2964
sI2964
Vbarking
p2965
sI2965
Vwaves
p2966
sI2966
Vhighway
p2967
sI2967
Vspeeding
p2968
sI2968
Vpaved
p2969
sI2969
Vroars
p2970
sI2970
Vspeeds
p2971
sI2971
Vrabbit
p2972
sI2972
Vbrocoli
p2973
sI2973
Vslurry
p2974
sI2974
Vsodium
p2975
sI2975
Vacetate
p2976
sI2976
Vliguid
p2977
sI2977
Vcouples
p2978
sI2978
Vrespective
p2979
sI2979
Vspouses
p2980
sI2980
Vdating
p2981
sI2981
Vengagements
p2982
sI2982
Vpictures
p2983
sI2983
Vpew
p2984
sI2984
Vphotographs
p2985
sI2985
Vphotographer
p2986
sI2986
Vphoto
p2987
sI2987
Vmodel
p2988
sI2988
Vphotographed
p2989
sI2989
Vbus
p2990
sI2990
Vtravels
p2991
sI2991
Vstreetcar
p2992
sI2992
Vtourist
p2993
sI2993
Vovertaking
p2994
sI2994
Vreaches
p2995
sI2995
Vseparate
p2996
sI2996
Vpizza's
p2997
sI2997
Vsector
p2998
sI2998
Vshuts
p2999
sI2999
Vselecting
p3000
sI3000
Vloading
p3001
sI3001
Vluggage
p3002
sI3002
Vpacking
p3003
sI3003
Vsuitcases
p3004
sI3004
Vcar's
p3005
sI3005
Vloaded
p3006
sI3006
Vload
p3007
sI3007
Vluggag
p3008
sI3008
Vswiftly
p3009
sI3009
Vdefender
p3010
sI3010
Vduring
p3011
sI3011
Vfaked
p3012
sI3012
Vwakes
p3013
sI3013
Vwaking
p3014
sI3014
Vsleep
p3015
sI3015
Vchimp
p3016
sI3016
Vcrocodile
p3017
sI3017
Valligator
p3018
sI3018
Vsnout
p3019
sI3019
Valligator's
p3020
sI3020
Vtoughing
p3021
sI3021
Vtaunts
p3022
sI3022
Vtouched
p3023
sI3023
Vcrocodiles
p3024
sI3024
Vbicyclist
p3025
sI3025
Vcurved
p3026
sI3026
Vcat's
p3027
sI3027
Vear
p3028
sI3028
Vmessing
p3029
sI3029
Vmight
p3030
sI3030
Vable
p3031
sI3031
Vgnawing
p3032
sI3032
Vcarnival
p3033
sI3033
Vroller
p3034
sI3034
Vcoaster
p3035
sI3035
Vranks
p3036
sI3036
Vscary
p3037
sI3037
Vrollercoaster
p3038
sI3038
Vamusement
p3039
sI3039
Vrolercoaster
p3040
sI3040
Vtraveled
p3041
sI3041
Vecstatically
p3042
sI3042
Vscreams
p3043
sI3043
Vyes
p3044
sI3044
Vscored
p3045
sI3045
Vtreats
p3046
sI3046
Valigned
p3047
sI3047
Vrow
p3048
sI3048
Vcows
p3049
sI3049
Vbending
p3050
sI3050
Vbopping
p3051
sI3051
Vherd
p3052
sI3052
Vcattle
p3053
sI3053
Vpasture
p3054
sI3054
Velectronic
p3055
sI3055
Vbob
p3056
sI3056
Vsheep
p3057
sI3057
Vmoved
p3058
sI3058
Vbeat
p3059
sI3059
Vrocked
p3060
sI3060
Vgoose
p3061
sI3061
Vswan
p3062
sI3062
Vgose
p3063
sI3063
Vchased
p3064
sI3064
Vsoaks
p3065
sI3065
Vjuices
p3066
sI3066
Vsearing
p3067
sI3067
Vslabs
p3068
sI3068
Vbooks
p3069
sI3069
Vjeep
p3070
sI3070
Vapproached
p3071
sI3071
Vmotorcar
p3072
sI3072
Vschool
p3073
sI3073
Vdejectedly
p3074
sI3074
Voffered
p3075
sI3075
Vtake
p3076
sI3076
Vslows
p3077
sI3077
Vasked
p3078
sI3078
Vgiven
p3079
sI3079
Vsound
p3080
sI3080
Vsleepy
p3081
sI3081
Vinitially
p3082
sI3082
Vincividual
p3083
sI3083
Vpadded
p3084
sI3084
Vpole
p3085
sI3085
Vtotem
p3086
sI3086
Vgrating
p3087
sI3087
Vsimmering
p3088
sI3088
Vscraping
p3089
sI3089
Vingedients
p3090
sI3090
Vgrates
p3091
sI3091
Vgrated
p3092
sI3092
Vscrapes
p3093
sI3093
Vstrumming
p3094
sI3094
Vcreate
p3095
sI3095
Vkneeling
p3096
sI3096
Veleven
p3097
sI3097
Vsuits
p3098
sI3098
Vbikinis
p3099
sI3099
Vmat
p3100
sI3100
Vdumbbells
p3101
sI3101
Vbarbells
p3102
sI3102
Vsteep
p3103
sI3103
Vcliff
p3104
sI3104
Vwithout
p3105
sI3105
Vsheer
p3106
sI3106
Vbluff
p3107
sI3107
Vbare
p3108
sI3108
Vclimber
p3109
sI3109
Vscales
p3110
sI3110
Vrockface
p3111
sI3111
Vshoot
p3112
sI3112
Vfallen
p3113
sI3113
Vcourt
p3114
sI3114
Vposition
p3115
sI3115
Vhoop
p3116
sI3116
Vsportsmen
p3117
sI3117
Vuniformed
p3118
sI3118
Vmember
p3119
sI3119
Vbaked
p3120
sI3120
Vdonuts
p3121
sI3121
Vfigure
p3122
sI3122
Veights
p3123
sI3123
Vpolar
p3124
sI3124
Vmattress
p3125
sI3125
Vown
p3126
sI3126
Vshredding
p3127
sI3127
Vsweet
p3128
sI3128
Vgreating
p3129
sI3129
Vantifreeze
p3130
sI3130
Vjug
p3131
sI3131
Vfunnel
p3132
sI3132
Vfluid
p3133
sI3133
Vanti
p3134
sI3134
Vfreeze
p3135
sI3135
Vradiator
p3136
sI3136
Vcoolant
p3137
sI3137
Vengine
p3138
sI3138
Vvolleyball
p3139
sI3139
Vvolleyballs
p3140
sI3140
Vprovided
p3141
sI3141
Vvolley
p3142
sI3142
Vsmashing
p3143
sI3143
Vpainted
p3144
sI3144
Veye
p3145
sI3145
Vdecorates
p3146
sI3146
Vjoker
p3147
sI3147
Vpaints
p3148
sI3148
Vminced
p3149
sI3149
Vhunk
p3150
sI3150
Vsoy
p3151
sI3151
Vrib
p3152
sI3152
Vo
p3153
sI3153
Vlantern
p3154
sI3154
Vexploring
p3155
sI3155
Vexplored
p3156
sI3156
Vpumpkin
p3157
sI3157
Vi
p3158
sI3158
Vcombining
p3159
sI3159
Vdash
p3160
sI3160
Vclassic
p3161
sI3161
Varriving
p3162
sI3162
Vamidst
p3163
sI3163
Vgoalie
p3164
sI3164
Vgoals
p3165
sI3165
Vprevents
p3166
sI3166
Vsave
p3167
sI3167
Vblocking
p3168
sI3168
Ventering
p3169
sI3169
Vgoalkeeper
p3170
sI3170
Vdestroying
p3171
sI3171
Vvandalizing
p3172
sI3172
Vfighter
p3173
sI3173
Vcharacters
p3174
sI3174
Vmess
p3175
sI3175
Vstomp
p3176
sI3176
V'street
p3177
sI3177
Vfighter'
p3178
sI3178
Vbonnet
p3179
sI3179
Vrehearsing
p3180
sI3180
Vroutine
p3181
sI3181
Vrehearsed
p3182
sI3182
Vflue
p3183
sI3183
Vplayground
p3184
sI3184
Vflee
p3185
sI3185
Vrains
p3186
sI3186
Vbathi
p3187
sI3187
Vchokariyo
p3188
sI3188
Vramata
p3189
sI3189
Vjati
p3190
sI3190
Vrhe
p3191
sI3191
Vsomewhere
p3192
sI3192
Vleopard
p3193
sI3193
Vleopards
p3194
sI3194
Vcongregating
p3195
sI3195
Vsurvey
p3196
sI3196
Vsurroundings
p3197
sI3197
Vcheetah
p3198
sI3198
Vkittens
p3199
sI3199
Vcougar
p3200
sI3200
Vsure
p3201
sI3201
Vsafe
p3202
sI3202
Vroam
p3203
sI3203
Vsaw
p3204
sI3204
Vpuppie
p3205
sI3205
Vtrampoline
p3206
sI3206
Vtrampolines
p3207
sI3207
Vtramplines
p3208
sI3208
Vbouncy
p3209
sI3209
Vbikini
p3210
sI3210
Vabdomen
p3211
sI3211
Vexplorer
p3212
sI3212
Vmarionette
p3213
sI3213
Vnaked
p3214
sI3214
Vthigh
p3215
sI3215
Vcanced
p3216
sI3216
Verectly
p3217
sI3217
Vsaluting
p3218
sI3218
Vnational
p3219
sI3219
Vanthem
p3220
sI3220
Vsalute
p3221
sI3221
Vforrest
p3222
sI3222
Vaxe
p3223
sI3223
Vprocess
p3224
sI3224
Vfelling
p3225
sI3225
Vax
p3226
sI3226
Vaxes
p3227
sI3227
Vshirtless
p3228
sI3228
Vpull
p3229
sI3229
Vdips
p3230
sI3230
Vbatters
p3231
sI3231
Vbattering
p3232
sI3232
Vcanvas
p3233
sI3233
Vsacks
p3234
sI3234
Vblanket
p3235
sI3235
Vcarried
p3236
sI3236
Vburlap
p3237
sI3237
Vsack
p3238
sI3238
Vcarry
p3239
sI3239
Vcarpet
p3240
sI3240
Vsection
p3241
sI3241
Vrug
p3242
sI3242
Vreclining
p3243
sI3243
Vcushions
p3244
sI3244
Vsitiing
p3245
sI3245
Vonion's
p3246
sI3246
Vspring
p3247
sI3247
Vbundles
p3248
sI3248
Vdresses
p3249
sI3249
Vmeadow
p3250
sI3250
Vgarbs
p3251
sI3251
Vscenic
p3252
sI3252
Vapparatus
p3253
sI3253
Vkebabs
p3254
sI3254
Vshish
p3255
sI3255
Vkabobs
p3256
sI3256
Vskewer
p3257
sI3257
Vholder
p3258
sI3258
Vcooker
p3259
sI3259
Vspecial
p3260
sI3260
Vclasped
p3261
sI3261
Vmechanized
p3262
sI3262
Varond
p3263
sI3263
Vcontraption
p3264
sI3264
Vexcess
p3265
sI3265
Vsilly
p3266
sI3266
Vfoal
p3267
sI3267
Vpony
p3268
sI3268
Voutruns
p3269
sI3269
Valongside
p3270
sI3270
Vpasses
p3271
sI3271
Vinfront
p3272
sI3272
Vchanges
p3273
sI3273
Vpropel
p3274
sI3274
Vforward
p3275
sI3275
Vtrunks
p3276
sI3276
Vthrow
p3277
sI3277
Vthemselves
p3278
sI3278
Vdusting
p3279
sI3279
Venclosed
p3280
sI3280
Vblew
p3281
sI3281
Vtargeted
p3282
sI3282
Vknives
p3283
sI3283
Vknifes
p3284
sI3284
Vtrio
p3285
sI3285
Vmandolin
p3286
sI3286
Vslicer
p3287
sI3287
Vseparates
p3288
sI3288
Vionion
p3289
sI3289
Vcop
p3290
sI3290
Vbadly
p3291
sI3291
Vintersection
p3292
sI3292
Vthrown
p3293
sI3293
Vcops
p3294
sI3294
Vstruck
p3295
sI3295
Vbarriers
p3296
sI3296
Vworkout
p3297
sI3297
Vbarbell
p3298
sI3298
Vcore
p3299
sI3299
Vjapanese
p3300
sI3300
Vlayers
p3301
sI3301
Vwelsch
p3302
sI3302
Vremaining
p3303
sI3303
Vjungle
p3304
sI3304
Vhalter
p3305
sI3305
Vpeals
p3306
sI3306
Vteh
p3307
sI3307
Valready
p3308
sI3308
Vprepared
p3309
sI3309
Vpineapple
p3310
sI3310
Vtakig
p3311
sI3311
Vpinneapple
p3312
sI3312
Vremove
p3313
sI3313
Vskinning
p3314
sI3314
Vleaps
p3315
sI3315
Vclaws
p3316
sI3316
Vtopmost
p3317
sI3317
Vscrambles
p3318
sI3318
Vadjacent
p3319
sI3319
Vomelet
p3320
sI3320
Vscrambling
p3321
sI3321
Vomelette
p3322
sI3322
Vscrambled
p3323
sI3323
Vnudges
p3324
sI3324
Vutility
p3325
sI3325
Vleap
p3326
sI3326
Vherb
p3327
sI3327
Vboyis
p3328
sI3328
Vmarinated
p3329
sI3329
Vmeaty
p3330
sI3330
Vslammed
p3331
sI3331
Vpunched
p3332
sI3332
Vstriking
p3333
sI3333
Vwrestler
p3334
sI3334
Vslams
p3335
sI3335
Vpinned
p3336
sI3336
Vfighters
p3337
sI3337
Vfrog
p3338
sI3338
Vgrab
p3339
sI3339
Vlatch
p3340
sI3340
Vtoad
p3341
sI3341
Vwhittle
p3342
sI3342
Vsautes
p3343
sI3343
Via
p3344
sI3344
Vblush
p3345
sI3345
Vexplores
p3346
sI3346
Vdrawers
p3347
sI3347
Vhardwood
p3348
sI3348
Vtraverses
p3349
sI3349
Vsinking
p3350
sI3350
Vpiles
p3351
sI3351
Vdrift
p3352
sI3352
Vdrifts
p3353
sI3353
Vassorted
p3354
sI3354
Vgymnast
p3355
sI3355
Vwrong
p3356
sI3356
Vbeam
p3357
sI3357
Vaccident
p3358
sI3358
Vgymnastics
p3359
sI3359
Vhurts
p3360
sI3360
Vmisses
p3361
sI3361
Vnasty
p3362
sI3362
Vspill
p3363
sI3363
Vbalancing
p3364
sI3364
Vgrater
p3365
sI3365
Vshredded
p3366
sI3366
Vmeatballs
p3367
sI3367
Vrocker
p3368
sI3368
Vpounces
p3369
sI3369
Vpounced
p3370
sI3370
Vantagonizing
p3371
sI3371
Vacoustical
p3372
sI3372
Vrinding
p3373
sI3373
Vtype
p3374
sI3374
Vassist
p3375
sI3375
Vcirle
p3376
sI3376
Vjumper
p3377
sI3377
Vpouncing
p3378
sI3378
Vbounces
p3379
sI3379
Vfrolic
p3380
sI3380
Vfrolicking
p3381
sI3381
Vingredient
p3382
sI3382
Vseems
p3383
sI3383
Vinvisible
p3384
sI3384
Vwhites
p3385
sI3385
Vbeaten
p3386
sI3386
Vfrothy
p3387
sI3387
Vstiff
p3388
sI3388
Vgloves
p3389
sI3389
Vjabbing
p3390
sI3390
Vpads
p3391
sI3391
Vsandy
p3392
sI3392
Vcalendar
p3393
sI3393
Vcalender
p3394
sI3394
Vcounting
p3395
sI3395
Vdays
p3396
sI3396
Vpointing
p3397
sI3397
Vchart
p3398
sI3398
Vsays
p3399
sI3399
Vpoints
p3400
sI3400
Vdates
p3401
sI3401
Vstudies
p3402
sI3402
Vschoolboy
p3403
sI3403
Vholidays
p3404
sI3404
Vparticular
p3405
sI3405
Vmonth
p3406
sI3406
Venjoying
p3407
sI3407
Vsphagetti
p3408
sI3408
Varrives
p3409
sI3409
Vstation
p3410
sI3410
Vslowing
p3411
sI3411
Vview
p3412
sI3412
Vsilhouette
p3413
sI3413
Vviews
p3414
sI3414
Vvideoclip
p3415
sI3415
Vband's
p3416
sI3416
Vprofile
p3417
sI3417
Vshadows
p3418
sI3418
Vsurreal
p3419
sI3419
Vbackdrop
p3420
sI3420
Varranging
p3421
sI3421
Vstacked
p3422
sI3422
Vdescaling
p3423
sI3423
Vfish's
p3424
sI3424
Vscaled
p3425
sI3425
Vde
p3426
sI3426
Vbarks
p3427
sI3427
Vgo
p3428
sI3428
Vstair
p3429
sI3429
Vdownstairs
p3430
sI3430
Vhesitantly
p3431
sI3431
Vveins
p3432
sI3432
Vtoothpick
p3433
sI3433
Vgutting
p3434
sI3434
Vdeveining
p3435
sI3435
Vvein
p3436
sI3436
Vgriddle
p3437
sI3437
Vpancake
p3438
sI3438
Vpancakes
p3439
sI3439
Vladles
p3440
sI3440
Vladled
p3441
sI3441
Vgrittle
p3442
sI3442
Vspoons
p3443
sI3443
Vgridle
p3444
sI3444
Vbanner
p3445
sI3445
Vmanchester
p3446
sI3446
Vct
p3447
sI3447
Vmorning
p3448
sI3448
Vreporter
p3449
sI3449
Vbroadcasting
p3450
sI3450
Vreporting
p3451
sI3451
Vtv
p3452
sI3452
Vshootout
p3453
sI3453
Vjournalist
p3454
sI3454
Vreport
p3455
sI3455
Vnewscaster
p3456
sI3456
Vreported
p3457
sI3457
Vcrime
p3458
sI3458
Vreel
p3459
sI3459
Vshark
p3460
sI3460
Vsurface
p3461
sI3461
Vbait
p3462
sI3462
Vdolphin
p3463
sI3463
Vfisherman
p3464
sI3464
Vwe
p3465
sI3465
Vmovement
p3466
sI3466
Vsharks
p3467
sI3467
Vtab
p3468
sI3468
Vnoodle
p3469
sI3469
Vopend
p3470
sI3470
Vchunky
p3471
sI3471
Vhelicopter
p3472
sI3472
Vdangling
p3473
sI3473
Vcte
p3474
sI3474
Vthat's
p3475
sI3475
Vthinly
p3476
sI3476
Vknocked
p3477
sI3477
Vtwice
p3478
sI3478
Vknocking
p3479
sI3479
Vfall
p3480
sI3480
Vrambunctious
p3481
sI3481
Vlogged
p3482
sI3482
Vonce
p3483
sI3483
Vbut
p3484
sI3484
Vbumping
p3485
sI3485
Vzucchini
p3486
sI3486
Vwo
p3487
sI3487
Vpuppies
p3488
sI3488
Veachother
p3489
sI3489
Vtussle
p3490
sI3490
Vpets
p3491
sI3491
Vbo
p3492
sI3492
Vangle
p3493
sI3493
Vattacker
p3494
sI3494
Vmirrored
p3495
sI3495
Vmerrier
p3496
sI3496
Vamused
p3497
sI3497
Vfascinated
p3498
sI3498
Vseeing
p3499
sI3499
Vimitating
p3500
sI3500
Vwaved
p3501
sI3501
Vteenaged
p3502
sI3502
Vbedroom
p3503
sI3503
Vsynchronization
p3504
sI3504
Vtrainers
p3505
sI3505
Vtusker
p3506
sI3506
Vspike
p3507
sI3507
Vgel
p3508
sI3508
Vcombing
p3509
sI3509
Vliberty
p3510
sI3510
Vmohawk
p3511
sI3511
Vhairstyle
p3512
sI3512
Vneeded
p3513
sI3513
Vspiky
p3514
sI3514
Vhairdo
p3515
sI3515
Vcombs
p3516
sI3516
Vpaprika
p3517
sI3517
Vpudding
p3518
sI3518
Vstuff
p3519
sI3519
Vtowels
p3520
sI3520
Vpogo
p3521
sI3521
Vshoves
p3522
sI3522
Vturtle
p3523
sI3523
Vinspecting
p3524
sI3524
Vinteract
p3525
sI3525
Vnipping
p3526
sI3526
Vinterest
p3527
sI3527
Vsurya
p3528
sI3528
Vwilderness
p3529
sI3529
Voccupied
p3530
sI3530
Vhelmet
p3531
sI3531
Vhamlet
p3532
sI3532
Vmount
p3533
sI3533
Vthyme
p3534
sI3534
Vsifts
p3535
sI3535
Vshaken
p3536
sI3536
Vbowing
p3537
sI3537
Vcabbage
p3538
sI3538
Vleattuce
p3539
sI3539
Vbyclist
p3540
sI3540
Vspeedily
p3541
sI3541
Vsignboard
p3542
sI3542
Vtraffic
p3543
sI3543
Vparallel
p3544
sI3544
Vcyclist
p3545
sI3545
Vbicyle
p3546
sI3546
Vturn
p3547
sI3547
Vchess
p3548
sI3548
Vbeen
p3549
sI3549
Vmens
p3550
sI3550
Vmessed
p3551
sI3551
Vdisturbing
p3552
sI3552
Vflakes
p3553
sI3553
Vtoasting
p3554
sI3554
Vgloved
p3555
sI3555
Vstethoscope
p3556
sI3556
Vnewborn
p3557
sI3557
Vveterinarian
p3558
sI3558
Vinjection
p3559
sI3559
Vdoctor
p3560
sI3560
Vrecently
p3561
sI3561
Vborn
p3562
sI3562
Vheart
p3563
sI3563
Vlistened
p3564
sI3564
Vvet
p3565
sI3565
Vbreath
p3566
sI3566
Vhealth
p3567
sI3567
Vheartbeat
p3568
sI3568
Vlistens
p3569
sI3569
Vpolice
p3570
sI3570
Vbumps
p3571
sI3571
Vevading
p3572
sI3572
Vofficers
p3573
sI3573
Vforcing
p3574
sI3574
Vspin
p3575
sI3575
Vcompletely
p3576
sI3576
Vpursuit
p3577
sI3577
Vpitting
p3578
sI3578
Vpit
p3579
sI3579
Vmaneuver
p3580
sI3580
Vchase
p3581
sI3581
Vbespectacled
p3582
sI3582
Veyeliner
p3583
sI3583
Vliner
p3584
sI3584
Voutlining
p3585
sI3585
Vupper
p3586
sI3586
Veyelid
p3587
sI3587
Vlower
p3588
sI3588
Vkohl
p3589
sI3589
Vswirls
p3590
sI3590
Vevenly
p3591
sI3591
Vgrazes
p3592
sI3592
Vgrazing
p3593
sI3593
Vdominoes
p3594
sI3594
Vdislodges
p3595
sI3595
Vresemble
p3596
sI3596
Vbricks
p3597
sI3597
Vdominos
p3598
sI3598
Vwathces
p3599
sI3599
Varnold
p3600
sI3600
Vschwarzenegger
p3601
sI3601
Vrae
p3602
sI3602
Vdawn
p3603
sI3603
Vchong
p3604
sI3604
Vrotating
p3605
sI3605
Vpaintbrush
p3606
sI3606
Vtwirls
p3607
sI3607
Vcrib
p3608
sI3608
Vdiaper
p3609
sI3609
Vtripod
p3610
sI3610
Vphotograph
p3611
sI3611
Vsunset
p3612
sI3612
Vphotographing
p3613
sI3613
Vsuper
p3614
sI3614
Vfitted
p3615
sI3615
Vcapturing
p3616
sI3616
Vquadropod
p3617
sI3617
Vturle
p3618
sI3618
Vtorn
p3619
sI3619
Vtore
p3620
sI3620
Vroasted
p3621
sI3621
Vtearing
p3622
sI3622
Vshreds
p3623
sI3623
Vperformer
p3624
sI3624
Vtight
p3625
sI3625
Vtightrope
p3626
sI3626
Vflaming
p3627
sI3627
Vtied
p3628
sI3628
Vlimb
p3629
sI3629
Vplanks
p3630
sI3630
Vfiery
p3631
sI3631
Vamerican
p3632
sI3632
Vunited
p3633
sI3633
Vstates
p3634
sI3634
Vblowing
p3635
sI3635
Vlemons
p3636
sI3636
Vcitrus
p3637
sI3637
Vfruits
p3638
sI3638
Vlime
p3639
sI3639
Vgalloping
p3640
sI3640
Vbareback
p3641
sI3641
Vfloyd
p3642
sI3642
Vban
p3643
sI3643
Vdavid
p3644
sI3644
Vgilmour
p3645
sI3645
Vhat
p3646
sI3646
Vcape
p3647
sI3647
Vwheat
p3648
sI3648
Vsort
p3649
sI3649
Vceremonious
p3650
sI3650
Vunfolds
p3651
sI3651
Vcontinue
p3652
sI3652
Vtribes
p3653
sI3653
Vpod
p3654
sI3654
Vcontinues
p3655
sI3655
Vwalls
p3656
sI3656
Vtreated
p3657
sI3657
Vemergency
p3658
sI3658
Vhospital
p3659
sI3659
Vcompressions
p3660
sI3660
Vstretcher
p3661
sI3661
Voperating
p3662
sI3662
Vpatient
p3663
sI3663
Voperation
p3664
sI3664
Vdoctors
p3665
sI3665
Vtreating
p3666
sI3666
Vresuscitate
p3667
sI3667
Vtend
p3668
sI3668
Vgurney
p3669
sI3669
Vtry
p3670
sI3670
Vmedical
p3671
sI3671
Vpersonnel
p3672
sI3672
Vsurgeions
p3673
sI3673
Ver
p3674
sI3674
Vnewsdesk
p3675
sI3675
Vreporters
p3676
sI3676
Vanchors
p3677
sI3677
Vspeak
p3678
sI3678
Vchannel
p3679
sI3679
Vnewscasters
p3680
sI3680
Vdeliver
p3681
sI3681
Vanchor
p3682
sI3682
Vjournalists
p3683
sI3683
Vconnecticut
p3684
sI3684
Vdraining
p3685
sI3685
Vfloats
p3686
sI3686
Vraft
p3687
sI3687
Vinflatable
p3688
sI3688
Vresting
p3689
sI3689
Vslipping
p3690
sI3690
Vreclines
p3691
sI3691
Vrubber
p3692
sI3692
Vrelaxes
p3693
sI3693
Vwatercraft
p3694
sI3694
Vinner
p3695
sI3695
Vrested
p3696
sI3696
Veven
p3697
sI3697
Vlay
p3698
sI3698
Vstrawberries
p3699
sI3699
Vporuing
p3700
sI3700
Vdries
p3701
sI3701
Vstall
p3702
sI3702
Vdrying
p3703
sI3703
Vtoweling
p3704
sI3704
Vwashed
p3705
sI3705
Vstraining
p3706
sI3706
Vdrains
p3707
sI3707
Veyebrow
p3708
sI3708
Vplucker
p3709
sI3709
Veyebrows
p3710
sI3710
Vplucks
p3711
sI3711
Vtweezers
p3712
sI3712
Vtweezed
p3713
sI3713
Vshaping
p3714
sI3714
Vtweezing
p3715
sI3715
Vbrow
p3716
sI3716
Vplucked
p3717
sI3717
Vmic
p3718
sI3718
Vanimal's
p3719
sI3719
Vovertime
p3720
sI3720
Vfluffy
p3721
sI3721
Vconstantly
p3722
sI3722
Vsticking
p3723
sI3723
Vtrains
p3724
sI3724
Vrailway
p3725
sI3725
Vactive
p3726
sI3726
Vshop
p3727
sI3727
Vhaired
p3728
sI3728
Vnibbling
p3729
sI3729
Vgnaws
p3730
sI3730
Vsleds
p3731
sI3731
Vsled
p3732
sI3732
Vsleigh
p3733
sI3733
Vindividuls
p3734
sI3734
Vsledding
p3735
sI3735
Vdogsleds
p3736
sI3736
Vdogsledding
p3737
sI3737
Vyoghurt
p3738
sI3738
Vmint
p3739
sI3739
Vyogurt
p3740
sI3740
Vmuch
p3741
sI3741
Vlaughting
p3742
sI3742
Vtopples
p3743
sI3743
Vmarlon
p3744
sI3744
Vwayons
p3745
sI3745
Vguests
p3746
sI3746
Vjudges
p3747
sI3747
Vtrumpet
p3748
sI3748
Vtuba
p3749
sI3749
Vsaxophone
p3750
sI3750
Vnecklace
p3751
sI3751
Vcelebrate
p3752
sI3752
Vmarried
p3753
sI3753
Vchain
p3754
sI3754
Vcheer
p3755
sI3755
Vsacred
p3756
sI3756
Vthread
p3757
sI3757
Vwedding
p3758
sI3758
Vhusband
p3759
sI3759
Vtasting
p3760
sI3760
Vprepares
p3761
sI3761
Vflounders
p3762
sI3762
Vteacup
p3763
sI3763
Vtom
p3764
sI3764
Vpetty
p3765
sI3765
Vbombarded
p3766
sI3766
Valice
p3767
sI3767
Vdodged
p3768
sI3768
Vmad
p3769
sI3769
Vhatter
p3770
sI3770
Vtreading
p3771
sI3771
Vafloat
p3772
sI3772
Vcoke
p3773
sI3773
Vbounce
p3774
sI3774
Vsoda
p3775
sI3775
Vmachines
p3776
sI3776
Vvending
p3777
sI3777
Vbranch
p3778
sI3778
Vclearing
p3779
sI3779
Vdragging
p3780
sI3780
Vforked
p3781
sI3781
Vbarked
p3782
sI3782
Vwelcome
p3783
sI3783
Vretriever
p3784
sI3784
Vnothing
p3785
sI3785
Vgravel
p3786
sI3786
Vlighter
p3787
sI3787
Vignited
p3788
sI3788
Vigniting
p3789
sI3789
Vflares
p3790
sI3790
Vflame
p3791
sI3791
Vlighted
p3792
sI3792
Vflicked
p3793
sI3793
Vmusical
p3794
sI3794
Vmini
p3795
sI3795
Vtoy's
p3796
sI3796
Vwhisking
p3797
sI3797
Vsavannah
p3798
sI3798
Vplayfully
p3799
sI3799
Vnudged
p3800
sI3800
Vlocks
p3801
sI3801
Vbreakdances
p3802
sI3802
Vrobot
p3803
sI3803
Vgyrating
p3804
sI3804
Vleash
p3805
sI3805
Vcorgi
p3806
sI3806
Vcries
p3807
sI3807
Vhooded
p3808
sI3808
Vbitterly
p3809
sI3809
Vcuddly
p3810
sI3810
Vnurses
p3811
sI3811
Vtoss
p3812
sI3812
Vfancy
p3813
sI3813
Vesculator
p3814
sI3814
Vbanister
p3815
sI3815
Vescalator
p3816
sI3816
Vrailing
p3817
sI3817
Vbannister
p3818
sI3818
Vbum
p3819
sI3819
Vhandrail
p3820
sI3820
Vescaltor
p3821
sI3821
Vsizzles
p3822
sI3822
Vwedge
p3823
sI3823
Vflight
p3824
sI3824
Vcase
p3825
sI3825
Vstairway
p3826
sI3826
Vdrunkenly
p3827
sI3827
Vwig
p3828
sI3828
Vrooftop
p3829
sI3829
Vdisembarking
p3830
sI3830
Vtransit
p3831
sI3831
Vsqueezing
p3832
sI3832
Vwringing
p3833
sI3833
Vpickles
p3834
sI3834
Vtilling
p3835
sI3835
Vroto
p3836
sI3836
Vtiller
p3837
sI3837
Vplowed
p3838
sI3838
Vplot
p3839
sI3839
Vauger
p3840
sI3840
Vharvester
p3841
sI3841
Vtills
p3842
sI3842
Vsoil
p3843
sI3843
Vpeas
p3844
sI3844
Vsalts
p3845
sI3845
Vcaretaker's
p3846
sI3846
Vscooter
p3847
sI3847
Vmo
p3848
sI3848
Vminibike
p3849
sI3849
Vdonut
p3850
sI3850
Vdrifting
p3851
sI3851
Vswerves
p3852
sI3852
Vautomobile
p3853
sI3853
Vvaguely
p3854
sI3854
Vfatty
p3855
sI3855
Vslots
p3856
sI3856
Vedges
p3857
sI3857
Vnotches
p3858
sI3858
Vinfant
p3859
sI3859
Vseats
p3860
sI3860
Vsneezing
p3861
sI3861
Vsneezed
p3862
sI3862
Vscares
p3863
sI3863
Vsurprising
p3864
sI3864
Vsneeze
p3865
sI3865
Vbumba
p3866
sI3866
Vbooster
p3867
sI3867
Vyarn
p3868
sI3868
Vthrought
p3869
sI3869
Vgrand
p3870
sI3870
Venjoy
p3871
sI3871
Vstrolled
p3872
sI3872
Vbrushes
p3873
sI3873
Vflours
p3874
sI3874
Vfloured
p3875
sI3875
Vglazes
p3876
sI3876
Vbrushed
p3877
sI3877
Vcruising
p3878
sI3878
Vtraversing
p3879
sI3879
Vsails
p3880
sI3880
Vdeck
p3881
sI3881
Vship
p3882
sI3882
Vpowerboat
p3883
sI3883
Vyacht
p3884
sI3884
Vbot
p3885
sI3885
Vskimmed
p3886
sI3886
Vspaceship
p3887
sI3887
Vatlantis
p3888
sI3888
Vshuttle
p3889
sI3889
Vorbiting
p3890
sI3890
Vairplane
p3891
sI3891
Vseen
p3892
sI3892
Vgradually
p3893
sI3893
Vbodies
p3894
sI3894
Vsoaring
p3895
sI3895
Vsheets
p3896
sI3896
Vmicrowaves
p3897
sI3897
Vnapkins
p3898
sI3898
Vwake
p3899
sI3899
Vwakening
p3900
sI3900
Vwoke
p3901
sI3901
Vtells
p3902
sI3902
Vtips
p3903
sI3903
Vsport
p3904
sI3904
Vdirectly
p3905
sI3905
Vwarm
p3906
sI3906
Vbenefits
p3907
sI3907
Vsports
p3908
sI3908
Vsubdue
p3909
sI3909
Vbunny
p3910
sI3910
Vterrorizes
p3911
sI3911
Vbucket
p3912
sI3912
Vstiring
p3913
sI3913
Vessence
p3914
sI3914
Vvigorously
p3915
sI3915
Vgrape
p3916
sI3916
Vbasin
p3917
sI3917
Vsolution
p3918
sI3918
Vloosing
p3919
sI3919
Vattempt
p3920
sI3920
Vhitchhike
p3921
sI3921
Vhitchhiker
p3922
sI3922
Vasks
p3923
sI3923
Vhitchhikes
p3924
sI3924
Vasking
p3925
sI3925
Vlift
p3926
sI3926
Vhitchhiking
p3927
sI3927
Vhitch
p3928
sI3928
Vhike
p3929
sI3929
Vignores
p3930
sI3930
Vhiker
p3931
sI3931
Vliter
p3932
sI3932
Vpop
p3933
sI3933
Vma
p3934
sI3934
Vincisions
p3935
sI3935
Vjumbo
p3936
sI3936
Vfrogs
p3937
sI3937
Vswallow
p3938
sI3938
Vcling
p3939
sI3939
Vuphill
p3940
sI3940
Vdune
p3941
sI3941
Vhillside
p3942
sI3942
Vwheeler
p3943
sI3943
Vdinner
p3944
sI3944
Vmall
p3945
sI3945
Vbrowsing
p3946
sI3946
Vinserts
p3947
sI3947
Vvise
p3948
sI3948
Vstraightness
p3949
sI3949
Vvice
p3950
sI3950
Vclamping
p3951
sI3951
Vtrys
p3952
sI3952
Vclamp
p3953
sI3953
Vclamped
p3954
sI3954
Vshappens
p3955
sI3955
Vrod
p3956
sI3956
Vclench
p3957
sI3957
Vands
p3958
sI3958
Vstabs
p3959
sI3959
Vstabbing
p3960
sI3960
Vposter
p3961
sI3961
Vstabbed
p3962
sI3962
Vstab
p3963
sI3963
Vprint
p3964
sI3964
Vpierced
p3965
sI3965
Vcake
p3966
sI3966
Vu
p3967
sI3967
Vplain
p3968
sI3968
Vaside
p3969
sI3969
Vmain
p3970
sI3970
Vterrace
p3971
sI3971
Vstepping
p3972
sI3972
Vpatterns
p3973
sI3973
Vgeometric
p3974
sI3974
Vshapes
p3975
sI3975
Vvegtable
p3976
sI3976
Vfreeway
p3977
sI3977
Vexpress
p3978
sI3978
Vjalape
p3979
sI3979
Vclay
p3980
sI3980
Vpots
p3981
sI3981
Vjars
p3982
sI3982
Vcontainers
p3983
sI3983
Vjugs
p3984
sI3984
Voots
p3985
sI3985
Vfist
p3986
sI3986
Vballoons
p3987
sI3987
Vmichael
p3988
sI3988
Vjackson
p3989
sI3989
Vclaymation
p3990
sI3990
Vfilm
p3991
sI3991
Vversion
p3992
sI3992
Vdonkey
p3993
sI3993
Valley
p3994
sI3994
Vblows
p3995
sI3995
Vexploded
p3996
sI3996
Vexplodes
p3997
sI3997
Vblasting
p3998
sI3998
Vexplosion
p3999
sI3999
Vheard
p4000
sI4000
Vstill
p4001
sI4001
Vpassengers
p4002
sI4002
Vfoxes
p4003
sI4003
Vpatio
p4004
sI4004
Vprocessed
p4005
sI4005
Vroots
p4006
sI4006
Vbulb
p4007
sI4007
Vbulbs
p4008
sI4008
Vtheit
p4009
sI4009
Vstalks
p4010
sI4010
Vmaybe
p4011
sI4011
Vturnip
p4012
sI4012
Vfreshly
p4013
sI4013
Vseparated
p4014
sI4014
Vreddish
p4015
sI4015
Voverboard
p4016
sI4016
Vprisoner
p4017
sI4017
Vpoodle
p4018
sI4018
Vrand
p4019
sI4019
Vlounging
p4020
sI4020
Vlounges
p4021
sI4021
Vuncorking
p4022
sI4022
Vblond
p4023
sI4023
Vfit
p4024
sI4024
Valcohol
p4025
sI4025
Vswaying
p4026
sI4026
Vliquior
p4027
sI4027
Vspinach
p4028
sI4028
Vgreens
p4029
sI4029
Vblanching
p4030
sI4030
Vcrushes
p4031
sI4031
Vserrated
p4032
sI4032
Vjuicy
p4033
sI4033
Vtomatos
p4034
sI4034
Vfrowns
p4035
sI4035
Vsmiles
p4036
sI4036
Vemoting
p4037
sI4037
Vfacial
p4038
sI4038
Vexpressions
p4039
sI4039
Vaccording
p4040
sI4040
Vuttered
p4041
sI4041
Valternated
p4042
sI4042
Vserious
p4043
sI4043
Vperplexed
p4044
sI4044
Vsmiled
p4045
sI4045
Vreturns
p4046
sI4046
Vbrought
p4047
sI4047
Vsauteed
p4048
sI4048
Vcrunches
p4049
sI4049
Vaide
p4050
sI4050
Vinstructor
p4051
sI4051
Vchickens
p4052
sI4052
Vrabbits
p4053
sI4053
Vintervene
p4054
sI4054
Varrive
p4055
sI4055
Vhens
p4056
sI4056
Vattack
p4057
sI4057
Vroosters
p4058
sI4058
Vscuffle
p4059
sI4059
Vstunting
p4060
sI4060
Vbowling
p4061
sI4061
Vtournament
p4062
sI4062
Vbowler
p4063
sI4063
Vlanes
p4064
sI4064
Vhurtles
p4065
sI4065
Vspindles
p4066
sI4066
Vdouble
p4067
sI4067
Vstrike
p4068
sI4068
Vbowled
p4069
sI4069
Vpent
p4070
sI4070
Vbuttock
p4071
sI4071
Vpruning
p4072
sI4072
Vbush
p4073
sI4073
Vprunes
p4074
sI4074
Vberries
p4075
sI4075
Vclipping
p4076
sI4076
Vhedges
p4077
sI4077
Vmug
p4078
sI4078
Vtabletop
p4079
sI4079
Vlion
p4080
sI4080
Vrests
p4081
sI4081
Vstream
p4082
sI4082
Vcreek
p4083
sI4083
Vparmesan
p4084
sI4084
Vricearoni
p4085
sI4085
Vtoasted
p4086
sI4086
Vexcitedly
p4087
sI4087
Vstomping
p4088
sI4088
Vterrier
p4089
sI4089
Vriffle
p4090
sI4090
Vwhitish
p4091
sI4091
Vsoaking
p4092
sI4092
Vapples
p4093
sI4093
Vsubmerging
p4094
sI4094
Vmicrowave
p4095
sI4095
Vmicrowaving
p4096
sI4096
Vicing
p4097
sI4097
Vbatch
p4098
sI4098
Vfudge
p4099
sI4099
Vchocolaty
p4100
sI4100
Vconsistency
p4101
sI4101
Vdvd
p4102
sI4102
Vcompact
p4103
sI4103
Vdisc
p4104
sI4104
Vcd
p4105
sI4105
Vtoothpaste
p4106
sI4106
Vpeanut
p4107
sI4107
Vdisk
p4108
sI4108
Vdabbing
p4109
sI4109
Vsequence
p4110
sI4110
Vfaucet
p4111
sI4111
Vrinsing
p4112
sI4112
Vsaucer
p4113
sI4113
Vwithin
p4114
sI4114
Vsloths
p4115
sI4115
Viris
p4116
sI4116
Vlorises
p4117
sI4117
Vsteal
p4118
sI4118
Vloris'
p4119
sI4119
Vmammals
p4120
sI4120
Vboarder
p4121
sI4121
Vskateboarded
p4122
sI4122
Vskated
p4123
sI4123
Veighths
p4124
sI4124
Vpaino
p4125
sI4125
Vitching
p4126
sI4126
Vtickling
p4127
sI4127
Vpokes
p4128
sI4128
Vtickles
p4129
sI4129
Vtickled
p4130
sI4130
Vpetted
p4131
sI4131
Vliked
p4132
sI4132
Viced
p4133
sI4133
Vegg's
p4134
sI4134
Vshell
p4135
sI4135
Vshelling
p4136
sI4136
Vbatman
p4137
sI4137
Vrobin
p4138
sI4138
Vcockpit
p4139
sI4139
Vlanded
p4140
sI4140
Vcopter
p4141
sI4141
Vannouncement
p4142
sI4142
Vmanual
p4143
sI4143
Vsquash
p4144
sI4144
Vpressing
p4145
sI4145
Vchopper
p4146
sI4146
Vplunger
p4147
sI4147
Vgrate
p4148
sI4148
Vtoaster
p4149
sI4149
Vpillsbury
p4150
sI4150
Vpastries
p4151
sI4151
Vpackaging
p4152
sI4152
Vscramblers
p4153
sI4153
Vwrapper
p4154
sI4154
Vsmoke
p4155
sI4155
Vo'lantern
p4156
sI4156
Vjackolantern
p4157
sI4157
Vemitting
p4158
sI4158
Vrising
p4159
sI4159
Vcarved
p4160
sI4160
Vbelches
p4161
sI4161
Vfog
p4162
sI4162
Vemanating
p4163
sI4163
Vhalloween
p4164
sI4164
V'o
p4165
sI4165
Vlatern
p4166
sI4166
Vlantern's
p4167
sI4167
Voctopus
p4168
sI4168
Vsquid
p4169
sI4169
Vdecorating
p4170
sI4170
Vsesame
p4171
sI4171
Vseed
p4172
sI4172
Vgarnishing
p4173
sI4173
Vthrashes
p4174
sI4174
Vfeeder
p4175
sI4175
Vpesquet
p4176
sI4176
Vlemonade
p4177
sI4177
Vscooping
p4178
sI4178
Vavacado
p4179
sI4179
Vavocado
p4180
sI4180
Vpulp
p4181
sI4181
Vpits
p4182
sI4182
Vscopes
p4183
sI4183
Vscoop
p4184
sI4184
Vspooned
p4185
sI4185
Vkamakodo
p4186
sI4186
Vkamaboko
p4187
sI4187
Vmotorized
p4188
sI4188
Vtentacle
p4189
sI4189
Vfountain
p4190
sI4190
Vfill
p4191
sI4191
Vwets
p4192
sI4192
Vrepeats
p4193
sI4193
Vcate
p4194
sI4194
Vtenderizing
p4195
sI4195
Vtiered
p4196
sI4196
Vtier
p4197
sI4197
Vsculpture
p4198
sI4198
Vbirthday
p4199
sI4199
Vpump
p4200
sI4200
Vmates
p4201
sI4201
Vreverses
p4202
sI4202
Vfingernails
p4203
sI4203
Vdrummed
p4204
sI4204
Vclicking
p4205
sI4205
Vdriver's
p4206
sI4206
Vseat
p4207
sI4207
Vwindshield
p4208
sI4208
Vcalling
p4209
sI4209
Vyelling
p4210
sI4210
Vwants
p4211
sI4211
Vbarbed
p4212
sI4212
Vnori
p4213
sI4213
Vseaweed
p4214
sI4214
Vweed
p4215
sI4215
Vonigiri
p4216
sI4216
Vglossy
p4217
sI4217
Vwrap
p4218
sI4218
Vsells
p4219
sI4219
Vobserves
p4220
sI4220
Vcash
p4221
sI4221
Vbill
p4222
sI4222
Vcutomer
p4223
sI4223
Vregister
p4224
sI4224
Vpurchase
p4225
sI4225
Vsecurity
p4226
sI4226
Vrecords
p4227
sI4227
Vclerk
p4228
sI4228
Vchange
p4229
sI4229
Vpaying
p4230
sI4230
Vmerchandise
p4231
sI4231
Vhardware
p4232
sI4232
Vbought
p4233
sI4233
Vlink
p4234
sI4234
Vbark
p4235
sI4235
Vcaged
p4236
sI4236
Vwired
p4237
sI4237
Venclosures
p4238
sI4238
Vdeath
p4239
sI4239
Vhiking
p4240
sI4240
Vdevil
p4241
sI4241
Vhitchhiked
p4242
sI4242
Vdemon
p4243
sI4243
Vtrident
p4244
sI4244
Vskeleton
p4245
sI4245
Vreaper
p4246
sI4246
Vaffectionately
p4247
sI4247
Vhug
p4248
sI4248
Vrecognized
p4249
sI4249
Vrecognition
p4250
sI4250
Vgutter
p4251
sI4251
Vrazor
p4252
sI4252
Vscrammbling
p4253
sI4253
Vsneaks
p4254
sI4254
Vbeyond
p4255
sI4255
Vmedium
p4256
sI4256
Vcelery
p4257
sI4257
Vpickle
p4258
sI4258
Vplantain
p4259
sI4259
Vexclaims
p4260
sI4260
Voh
p4261
sI4261
Vsatisfaction
p4262
sI4262
Vsip
p4263
sI4263
Vthumb
p4264
sI4264
Vinjures
p4265
sI4265
Vreacts
p4266
sI4266
Vsmashes
p4267
sI4267
Vwrestles
p4268
sI4268
Vkill
p4269
sI4269
Vwalrus
p4270
sI4270
Vcomic
p4271
sI4271
Vthis
p4272
sI4272
Vhelicopters
p4273
sI4273
Vrotors
p4274
sI4274
Vcrash
p4275
sI4275
Vcollide
p4276
sI4276
Vapparently
p4277
sI4277
Vchoppers
p4278
sI4278
Vplanes
p4279
sI4279
Vhelcopters
p4280
sI4280
Vclings
p4281
sI4281
Vrafter
p4282
sI4282
Vclung
p4283
sI4283
Vflings
p4284
sI4284
Vcuddling
p4285
sI4285
Vembracing
p4286
sI4286
Vcradling
p4287
sI4287
Vcomforted
p4288
sI4288
Vtatoos
p4289
sI4289
Vpassionately
p4290
sI4290
Vteammate
p4291
sI4291
Vbatsman
p4292
sI4292
Vwicketkeeper
p4293
sI4293
Vbats
p4294
sI4294
Vbookshelf
p4295
sI4295
Vlibrary
p4296
sI4296
Vbookcase
p4297
sI4297
Vbookshelves
p4298
sI4298
Vspeech
p4299
sI4299
Vdescribing
p4300
sI4300
Vsquatting
p4301
sI4301
Vcoaches
p4302
sI4302
Vdemonstrate
p4303
sI4303
Vshowcasing
p4304
sI4304
Vexplains
p4305
sI4305
Vnarrates
p4306
sI4306
Vguides
p4307
sI4307
Vapply
p4308
sI4308
Vconcealer
p4309
sI4309
Vchiseled
p4310
sI4310
Vlade
p4311
sI4311
Vloving
p4312
sI4312
Vbunnies
p4313
sI4313
Vbunnys
p4314
sI4314
Vthumper's
p4315
sI4315
Vthumped
p4316
sI4316
Vthumper
p4317
sI4317
Vdazzle
p4318
sI4318
Vflock
p4319
sI4319
Vgraze
p4320
sI4320
Vgrazed
p4321
sI4321
Vgrassing
p4322
sI4322
Vpeacefully
p4323
sI4323
Vteenagers
p4324
sI4324
Vmarinate
p4325
sI4325
Vmarinating
p4326
sI4326
Vfoamy
p4327
sI4327
Vcreated
p4328
sI4328
Vhose
p4329
sI4329
Vpool's
p4330
sI4330
Vhandled
p4331
sI4331
Vdemolishes
p4332
sI4332
Vcube
p4333
sI4333
Vsledgehammer
p4334
sI4334
Vpadding
p4335
sI4335
Vcorrugated
p4336
sI4336
Vunpacks
p4337
sI4337
Vmaterials
p4338
sI4338
Vshipping
p4339
sI4339
Vrowing
p4340
sI4340
Vpaddling
p4341
sI4341
Vcanoe
p4342
sI4342
Vpond
p4343
sI4343
Voar
p4344
sI4344
Vrowed
p4345
sI4345
Vscoops
p4346
sI4346
Vinnards
p4347
sI4347
Vseads
p4348
sI4348
Vcoring
p4349
sI4349
Velongated
p4350
sI4350
Vscraped
p4351
sI4351
Vmozzarella
p4352
sI4352
Vpuree
p4353
sI4353
Vrecipe
p4354
sI4354
Vcupped
p4355
sI4355
Vlump
p4356
sI4356
Vfondant
p4357
sI4357
Velse
p4358
sI4358
Vcostumed
p4359
sI4359
Vphantom
p4360
sI4360
Vvampire
p4361
sI4361
Vfom
p4362
sI4362
Vorangatan
p4363
sI4363
Vpale
p4364
sI4364
Vbamboo
p4365
sI4365
Vlotion
p4366
sI4366
Vcomforts
p4367
sI4367
Vmassaging
p4368
sI4368
Vlotioned
p4369
sI4369
Vindustrial
p4370
sI4370
Vpaddle
p4371
sI4371
Vknead
p4372
sI4372
Vbreaddough
p4373
sI4373
Vriden
p4374
sI4374
Vstrokes
p4375
sI4375
Vintense
p4376
sI4376
Vsegment
p4377
sI4377
Vjane
p4378
sI4378
Veyre
p4379
sI4379
Vappealed
p4380
sI4380
Vplea
p4381
sI4381
Vdeftly
p4382
sI4382
Vcontained
p4383
sI4383
Vroomba
p4384
sI4384
Vcleaner
p4385
sI4385
Velectrical
p4386
sI4386
Vappliance
p4387
sI4387
Vcones
p4388
sI4388
Vrollerblading
p4389
sI4389
Vpylons
p4390
sI4390
Vrollerskating
p4391
sI4391
Vblading
p4392
sI4392
Vrollerskated
p4393
sI4393
Vrollerblades
p4394
sI4394
Vimages
p4395
sI4395
Vrugby
p4396
sI4396
Vgenerated
p4397
sI4397
Voccurring
p4398
sI4398
Vtackled
p4399
sI4399
Vrules
p4400
sI4400
Vmembers
p4401
sI4401
Vhydrating
p4402
sI4402
Vunknown
p4403
sI4403
Vbrother
p4404
sI4404
Vtoddler's
p4405
sI4405
Vbitting
p4406
sI4406
Vbiten
p4407
sI4407
Vpain
p4408
sI4408
Vsince
p4409
sI4409
Vpreschool
p4410
sI4410
Vage
p4411
sI4411
Vapproaching
p4412
sI4412
Vtoddlerdom
p4413
sI4413
Vproceeds
p4414
sI4414
Vbitten
p4415
sI4415
Vbrother's
p4416
sI4416
Vstripping
p4417
sI4417
Vundressing
p4418
sI4418
Vstripped
p4419
sI4419
Vferret
p4420
sI4420
Vcarpeted
p4421
sI4421
Vwhenever
p4422
sI4422
Vtemps
p4423
sI4423
Vclawing
p4424
sI4424
Vskii
p4425
sI4425
Vskiis
p4426
sI4426
Vski
p4427
sI4427
Vjetski
p4428
sI4428
Vseadoo
p4429
sI4429
Vdoo
p4430
sI4430
Vblood
p4431
sI4431
Vdead
p4432
sI4432
Vmechanical
p4433
sI4433
Vtinted
p4434
sI4434
Vmugs
p4435
sI4435
Vseem
p4436
sI4436
Vcartoons
p4437
sI4437
Vwobbling
p4438
sI4438
Vdrinkware
p4439
sI4439
Vglove
p4440
sI4440
Vseemed
p4441
sI4441
Vbackflip
p4442
sI4442
Vstony
p4443
sI4443
Vbackward
p4444
sI4444
Vlagoon
p4445
sI4445
Vknitting
p4446
sI4446
Vcrocheting
p4447
sI4447
Vstitching
p4448
sI4448
Vcrocheted
p4449
sI4449
Vknits
p4450
sI4450
Vcrochet
p4451
sI4451
Vsideways
p4452
sI4452
Vpeddling
p4453
sI4453
Vsharing
p4454
sI4454
Vbicyling
p4455
sI4455
Vpotoatoe
p4456
sI4456
Vrecital
p4457
sI4457
Vtablespoons
p4458
sI4458
Vflavoring
p4459
sI4459
Vshreded
p4460
sI4460
Vpizzas
p4461
sI4461
Vunwraps
p4462
sI4462
Vfoodstuff
p4463
sI4463
Vbiscuit
p4464
sI4464
Vunwrapping
p4465
sI4465
Vitem
p4466
sI4466
Vmango
p4467
sI4467
Vavoiding
p4468
sI4468
Vpeach
p4469
sI4469
Vhalving
p4470
sI4470
Vcilantro
p4471
sI4471
Vfinding
p4472
sI4472
Vunderbrush
p4473
sI4473
Vcatfish
p4474
sI4474
Vsuddenly
p4475
sI4475
Vstringer
p4476
sI4476
Vslinky
p4477
sI4477
Vgown
p4478
sI4478
Vsultry
p4479
sI4479
Vlife
p4480
sI4480
Vwakeboarding
p4481
sI4481
Vwaterskiing
p4482
sI4482
Vskis
p4483
sI4483
Vfive
p4484
sI4484
Vtrays
p4485
sI4485
Vsaucers
p4486
sI4486
Valuminum
p4487
sI4487
Vbathed
p4488
sI4488
Vguns
p4489
sI4489
Vfirearms
p4490
sI4490
Vcompetes
p4491
sI4491
Vspraying
p4492
sI4492
Vstruggling
p4493
sI4493
Vargue
p4494
sI4494
Vcomfort
p4495
sI4495
Veyedropper
p4496
sI4496
Vdrop
p4497
sI4497
Vdropper
p4498
sI4498
Veddie
p4499
sI4499
Vmurphey
p4500
sI4500
Varsineo
p4501
sI4501
Vmurphy
p4502
sI4502
Varsenio
p4503
sI4503
Vnightclub
p4504
sI4504
Vamerica
p4505
sI4505
Visle
p4506
sI4506
Vroaming
p4507
sI4507
Vdiscotheque
p4508
sI4508
Ventire
p4509
sI4509
Vfrech
p4510
sI4510
Vhalves
p4511
sI4511
Vmustard
p4512
sI4512
Vcrusty
p4513
sI4513
Vdegrees
p4514
sI4514
Vslanted
p4515
sI4515
Vbun
p4516
sI4516
Vjuic
p4517
sI4517
Vlasagna
p4518
sI4518
Vpureed
p4519
sI4519
Vthing
p4520
sI4520
Vpenne
p4521
sI4521
Vdrained
p4522
sI4522
Vcolander
p4523
sI4523
Vcurvy
p4524
sI4524
Vwinding
p4525
sI4525
Vcurving
p4526
sI4526
Vmoped
p4527
sI4527
Vziploc
p4528
sI4528
Vpouch
p4529
sI4529
Vadvancing
p4530
sI4530
Vweapon
p4531
sI4531
Vkneels
p4532
sI4532
Vknelt
p4533
sI4533
Vrobots
p4534
sI4534
Vhumanoid
p4535
sI4535
Vmannequins
p4536
sI4536
Vposed
p4537
sI4537
Vthough
p4538
sI4538
Vadjustments
p4539
sI4539
Vpositions
p4540
sI4540
Vgadgets
p4541
sI4541
Vsurround
p4542
sI4542
Vresembling
p4543
sI4543
Vhumans
p4544
sI4544
Vshare
p4545
sI4545
Vfryer
p4546
sI4546
Vmascara
p4547
sI4547
Vlashes
p4548
sI4548
Veyelashes
p4549
sI4549
Vcereal
p4550
sI4550
Vbreakfast
p4551
sI4551
Vcrawled
p4552
sI4552
Vslumps
p4553
sI4553
Vcrouching
p4554
sI4554
Vmounted
p4555
sI4555
Vhorseman
p4556
sI4556
Vcarts
p4557
sI4557
Vdollies
p4558
sI4558
Ven
p4559
sI4559
Vsupplies
p4560
sI4560
Vwheelbarrows
p4561
sI4561
Vladen
p4562
sI4562
Vequipment
p4563
sI4563
Vsuperman
p4564
sI4564
Vpile
p4565
sI4565
Vrubble
p4566
sI4566
Vreveal
p4567
sI4567
Vhidden
p4568
sI4568
Vdoors
p4569
sI4569
Vsuperhero
p4570
sI4570
Vboulders
p4571
sI4571
Ventrance
p4572
sI4572
Vsuperhuman
p4573
sI4573
Vfeats
p4574
sI4574
Vwalled
p4575
sI4575
Vamusing
p4576
sI4576
Vambushing
p4577
sI4577
Vchild's
p4578
sI4578
Vshrub
p4579
sI4579
Vlaptop
p4580
sI4580
Vmonitor
p4581
sI4581
Vadmiring
p4582
sI4582
Vmonkey's
p4583
sI4583
Varmpits
p4584
sI4584
Vezcrackers
p4585
sI4585
Vpacketmathi
p4586
sI4586
Vkathe
p4587
sI4587
Vez
p4588
sI4588
Vcracker
p4589
sI4589
Vcrackers
p4590
sI4590
Vmushroom
p4591
sI4591
Vtumbles
p4592
sI4592
Vtumbling
p4593
sI4593
Vtoadstools
p4594
sI4594
Vrabbit's
p4595
sI4595
Vwonderland
p4596
sI4596
Vdescending
p4597
sI4597
Vspoonful
p4598
sI4598
Vcooling
p4599
sI4599
Vtasted
p4600
sI4600
Vbikes
p4601
sI4601
Vvegatables
p4602
sI4602
Vpressed
p4603
sI4603
Vsmashed
p4604
sI4604
Vmoose
p4605
sI4605
Vsprinkler
p4606
sI4606
Vsprinklers
p4607
sI4607
Vwetting
p4608
sI4608
Vrotated
p4609
sI4609
Vfan
p4610
sI4610
Vwaling
p4611
sI4611
Vfilmed
p4612
sI4612
Vcameramen
p4613
sI4613
Vpainter
p4614
sI4614
Vhandcuffed
p4615
sI4615
Vofficer
p4616
sI4616
Vpoliceman
p4617
sI4617
Vhandcuffs
p4618
sI4618
Varresting
p4619
sI4619
Varrested
p4620
sI4620
Vcuffs
p4621
sI4621
Vwrists
p4622
sI4622
Vcuffed
p4623
sI4623
Vhandcuffing
p4624
sI4624
Vhi
p4625
sI4625
Vskateboarders
p4626
sI4626
Vcommando
p4627
sI4627
Vsoldier
p4628
sI4628
Vsquad
p4629
sI4629
Vrifles
p4630
sI4630
Vbarren
p4631
sI4631
Vassaults
p4632
sI4632
Vtransported
p4633
sI4633
Vstretchers
p4634
sI4634
Vwheeled
p4635
sI4635
Vambulance
p4636
sI4636
Vrushes
p4637
sI4637
Vmedic
p4638
sI4638
Vabulance
p4639
sI4639
Vparamedics
p4640
sI4640
Vpatients
p4641
sI4641
Vgurneys
p4642
sI4642
Vmedics
p4643
sI4643
Vtransport
p4644
sI4644
Vintact
p4645
sI4645
Vsticky
p4646
sI4646
Vgoo
p4647
sI4647
Vyamaimo
p4648
sI4648
Vscaped
p4649
sI4649
Vchees
p4650
sI4650
Vsewing
p4651
sI4651
Vquilt
p4652
sI4652
Vstitches
p4653
sI4653
Vprinted
p4654
sI4654
Vsewed
p4655
sI4655
Vsews
p4656
sI4656
Vpatrols
p4657
sI4657
Vshoreline
p4658
sI4658
Vjust
p4659
sI4659
Vant
p4660
sI4660
Vnab
p4661
sI4661
Vhousefly
p4662
sI4662
Vforepaw
p4663
sI4663
Vwitha
p4664
sI4664
Vdear
p4665
sI4665
Vchainlink
p4666
sI4666
Vadjoining
p4667
sI4667
Vcyclone
p4668
sI4668
Vballroom
p4669
sI4669
Vstars
p4670
sI4670
Veight
p4671
sI4671
Vstarch
p4672
sI4672
Vworms
p4673
sI4673
Vguineapig
p4674
sI4674
Vguinna
p4675
sI4675
Vguniea
p4676
sI4676
Vunseen
p4677
sI4677
Vtelevision
p4678
sI4678
Vwoamn
p4679
sI4679
Vinterview
p4680
sI4680
Vparticipating
p4681
sI4681
Vprogram
p4682
sI4682
Vphonen
p4683
sI4683
Vplying
p4684
sI4684
Vfrequently
p4685
sI4685
Vbass
p4686
sI4686
Voceanic
p4687
sI4687
Vreally
p4688
sI4688
Vsurfer
p4689
sI4689
Vsurfed
p4690
sI4690
Vventriloquy
p4691
sI4691
Vventriloquist
p4692
sI4692
Vpuppeteer
p4693
sI4693
Vsomehting
p4694
sI4694
Vcubing
p4695
sI4695
Vlecture
p4696
sI4696
Vpodium
p4697
sI4697
Vlectern
p4698
sI4698
Vcelebrating
p4699
sI4699
Vhelp
p4700
sI4700
Vfriends
p4701
sI4701
Vtussled
p4702
sI4702
Vflouring
p4703
sI4703
Voranges
p4704
sI4704
Vleafs
p4705
sI4705
Vfamily
p4706
sI4706
Vbride
p4707
sI4707
Vbridesmaids
p4708
sI4708
Vlowest
p4709
sI4709
Vbleacher
p4710
sI4710
Vboils
p4711
sI4711
Vlayd
p4712
sI4712
Vboil
p4713
sI4713
Vsumo
p4714
sI4714
Vwrestlers
p4715
sI4715
Vringers
p4716
sI4716
Vbattling
p4717
sI4717
Vdomination
p4718
sI4718
Vengage
p4719
sI4719
Vquail
p4720
sI4720
Vspicing
p4721
sI4721
Vfowl
p4722
sI4722
Vquails
p4723
sI4723
Vchicke
p4724
sI4724
Vbelt
p4725
sI4725
Vupset
p4726
sI4726
Vgames
p4727
sI4727
Vangered
p4728
sI4728
Vgameboy
p4729
sI4729
Vpsp
p4730
sI4730
Vhandheld
p4731
sI4731
Vskewering
p4732
sI4732
Vroast
p4733
sI4733
Vhaunch
p4734
sI4734
Vtrimmed
p4735
sI4735
Vmotocross
p4736
sI4736
Vcurve
p4737
sI4737
Vbend
p4738
sI4738
Vtiles
p4739
sI4739
Vsequentially
p4740
sI4740
Vcross
p4741
sI4741
Vpremises
p4742
sI4742
Vgains
p4743
sI4743
Vcycling
p4744
sI4744
Vbuilder
p4745
sI4745
Vbodybuilder
p4746
sI4746
Vlifter
p4747
sI4747
Vcurls
p4748
sI4748
Vcurling
p4749
sI4749
Vweightlifting
p4750
sI4750
Vmuscular
p4751
sI4751
Vunto
p4752
sI4752
Vbent
p4753
sI4753
Velbows
p4754
sI4754
Vlifing
p4755
sI4755
Vfloat
p4756
sI4756
Vfloater
p4757
sI4757
Vtortoise
p4758
sI4758
Vambled
p4759
sI4759
Vstsnd
p4760
sI4760
Vreciting
p4761
sI4761
Vswimmer
p4762
sI4762
Vswim
p4763
sI4763
Vcondensed
p4764
sI4764
Vwhipped
p4765
sI4765
Vtopping
p4766
sI4766
Vbeaters
p4767
sI4767
Vcreamy
p4768
sI4768
Vbcycle
p4769
sI4769
Vhandlebars
p4770
sI4770
Vpedaled
p4771
sI4771
Vslips
p4772
sI4772
Vslippery
p4773
sI4773
Vlimes
p4774
sI4774
Vfrantically
p4775
sI4775
Vaimlessly
p4776
sI4776
Vsquirrrel
p4777
sI4777
Vbreasts
p4778
sI4778
Vcoconut
p4779
sI4779
Vsieve
p4780
sI4780
Vminiature
p4781
sI4781
Vsieved
p4782
sI4782
Vbisquit
p4783
sI4783
Vbbq
p4784
sI4784
Vbarbecue
p4785
sI4785
Vtexas
p4786
sI4786
Vchilli
p4787
sI4787
Vcharcoal
p4788
sI4788
Vmincemeat
p4789
sI4789
Vkeychain
p4790
sI4790
Vlucky
p4791
sI4791
Vclinging
p4792
sI4792
Vmusicians
p4793
sI4793
Vmarley
p4794
sI4794
Vmicrophones
p4795
sI4795
Vstyled
p4796
sI4796
Vstylist
p4797
sI4797
Vhairdresser
p4798
sI4798
Vstyles
p4799
sI4799
Vhaircut
p4800
sI4800
Vparlor
p4801
sI4801
Vstylish
p4802
sI4802
Vsectioned
p4803
sI4803
Vdone
p4804
sI4804
Vwomans
p4805
sI4805
Vthunder
p4806
sI4806
Vnumerous
p4807
sI4807
Vjostle
p4808
sI4808
Vshallot
p4809
sI4809
Vpickled
p4810
sI4810
Vlat
p4811
sI4811
Vcot
p4812
sI4812
Vcamp
p4813
sI4813
Vseal
p4814
sI4814
Vfashioned
p4815
sI4815
Vstrolling
p4816
sI4816
Vchat
p4817
sI4817
Vbiking
p4818
sI4818
Vrural
p4819
sI4819
Venvironment
p4820
sI4820
Vbicycles
p4821
sI4821
Vbikers
p4822
sI4822
Vrugged
p4823
sI4823
Vmotorcycles
p4824
sI4824
Vriders
p4825
sI4825
Vcomplete
p4826
sI4826
Vbicyclists
p4827
sI4827
Vsquawks
p4828
sI4828
Vrainbow
p4829
sI4829
Vshadow
p4830
sI4830
Vsnuggling
p4831
sI4831
Vcuddle
p4832
sI4832
Vpanday
p4833
sI4833
Vducklings
p4834
sI4834
Vducks
p4835
sI4835
Vchicks
p4836
sI4836
Vwandering
p4837
sI4837
Vwaddles
p4838
sI4838
Vhuddled
p4839
sI4839
Vlemurs
p4840
sI4840
Vstriped
p4841
sI4841
Vhedge
p4842
sI4842
Vhogs
p4843
sI4843
Vsun
p4844
sI4844
Vcuddled
p4845
sI4845
Vhuddling
p4846
sI4846
Vcurled
p4847
sI4847
Vsplashes
p4848
sI4848
Vlabrador
p4849
sI4849
Vpopped
p4850
sI4850
Vwheelies
p4851
sI4851
Vwheely
p4852
sI4852
Vpitch
p4853
sI4853
Vmissing
p4854
sI4854
Vplaer
p4855
sI4855
Vforkful
p4856
sI4856
Vbuying
p4857
sI4857
Vbuys
p4858
sI4858
Vbottles
p4859
sI4859
Vmarket
p4860
sI4860
Vpurchased
p4861
sI4861
Vcorona
p4862
sI4862
Vpurchases
p4863
sI4863
Vconvenience
p4864
sI4864
Vpaid
p4865
sI4865
Vantenna
p4866
sI4866
Vradio
p4867
sI4867
Vinterested
p4868
sI4868
Vreflected
p4869
sI4869
Vcans
p4870
sI4870
Vgarage
p4871
sI4871
Vrecyclables
p4872
sI4872
Vplatic
p4873
sI4873
Vrecycables
p4874
sI4874
Vbagful
p4875
sI4875
Vrecycling
p4876
sI4876
Vwyclef
p4877
sI4877
Vjean
p4878
sI4878
Vairport
p4879
sI4879
Vwon't
p4880
sI4880
Ventryway
p4881
sI4881
Vgerman
p4882
sI4882
Vsheppard
p4883
sI4883
Vfigured
p4884
sI4884
Vbring
p4885
sI4885
Vpeeld
p4886
sI4886
Vcurried
p4887
sI4887
Vdroppped
p4888
sI4888
Vloaves
p4889
sI4889
Vtoppings
p4890
sI4890
Vgenerously
p4891
sI4891
Vmound
p4892
sI4892
Vabdominal
p4893
sI4893
Vab
p4894
sI4894
Vmuscles
p4895
sI4895
Vabs
p4896
sI4896
Vinterviewing
p4897
sI4897
Vhurting
p4898
sI4898
Vprank
p4899
sI4899
Vshock
p4900
sI4900
Vmesh
p4901
sI4901
Vyanks
p4902
sI4902
Vjerks
p4903
sI4903
Vpinched
p4904
sI4904
Vtriangles
p4905
sI4905
Vmolds
p4906
sI4906
Vspecially
p4907
sI4907
Vmolded
p4908
sI4908
Vtarsier
p4909
sI4909
Vwierd
p4910
sI4910
Vbrance
p4911
sI4911
Vmunched
p4912
sI4912
Vfilms
p4913
sI4913
Vpadling
p4914
sI4914
Voanoe
p4915
sI4915
Vbroadcast
p4916
sI4916
Vcanoes
p4917
sI4917
Vlocality
p4918
sI4918
Vplunges
p4919
sI4919
Vwaterslide
p4920
sI4920
Vbubble
p4921
sI4921
Vbettie
p4922
sI4922
Vpage
p4923
sI4923
Vbubbles
p4924
sI4924
Vfoam
p4925
sI4925
Venjoyed
p4926
sI4926
Vpotato's
p4927
sI4927
Vamong
p4928
sI4928
Vpopping
p4929
sI4929
Vdisappears
p4930
sI4930
Vevery
p4931
sI4931
Vswatted
p4932
sI4932
Vhoeing
p4933
sI4933
Vplowing
p4934
sI4934
Vtends
p4935
sI4935
Vgardening
p4936
sI4936
Vhoe
p4937
sI4937
Vhoed
p4938
sI4938
Vrakes
p4939
sI4939
Vcontestants
p4940
sI4940
Vlaugh
p4941
sI4941
Vparrot's
p4942
sI4942
Vinterviews
p4943
sI4943
Vwatering
p4944
sI4944
Vbends
p4945
sI4945
Vsitring
p4946
sI4946
Vraining
p4947
sI4947
Vglassed
p4948
sI4948
Vcomplaint
p4949
sI4949
Vdiscussing
p4950
sI4950
Vlucy
p4951
sI4951
Vpelt
p4952
sI4952
Vpeanuts
p4953
sI4953
Vcartoonist
p4954
sI4954
Vpopular
p4955
sI4955
Vsketching
p4956
sI4956
Vanimator
p4957
sI4957
Vbin
p4958
sI4958
Vcomedic
p4959
sI4959
Vmimes
p4960
sI4960
Vgravy
p4961
sI4961
Vwarp
p4962
sI4962
Vpanther
p4963
sI4963
Vpredatory
p4964
sI4964
Vsprints
p4965
sI4965
Vswordfight
p4966
sI4966
Vsward
p4967
sI4967
Vsearching
p4968
sI4968
Vtapir
p4969
sI4969
Vaardvark
p4970
sI4970
Vforaging
p4971
sI4971
Vjournal
p4972
sI4972
Vnotebook
p4973
sI4973
Vdatebook
p4974
sI4974
Vdiary
p4975
sI4975
Vhomemade
p4976
sI4976
Vbeauty
p4977
sI4977
Vtreatment
p4978
sI4978
Vpste
p4979
sI4979
Vgelatin
p4980
sI4980
Vchanging
p4981
sI4981
Vchannels
p4982
sI4982
Vremote
p4983
sI4983
Vswitched
p4984
sI4984
Voperates
p4985
sI4985
Vstations
p4986
sI4986
Vscanning
p4987
sI4987
Vfiles
p4988
sI4988
Vlabels
p4989
sI4989
Vfolder
p4990
sI4990
Vlol
p4991
sI4991
Vcreates
p4992
sI4992
Vnavigating
p4993
sI4993
Vcreating
p4994
sI4994
Vfile
p4995
sI4995
Vtutorial
p4996
sI4996
Vdesktop
p4997
sI4997
V'my
p4998
sI4998
Vdocuments'
p4999
sI4999
Vnames
p5000
sI5000
Vmenus
p5001
sI5001
Vstaying
p5002
sI5002
Vstationary
p5003
sI5003
Vclown
p5004
sI5004
Vclowns
p5005
sI5005
Vmenacing
p5006
sI5006
Vperfoming
p5007
sI5007
Vmasked
p5008
sI5008
Velliptical
p5009
sI5009
Vstairmaster
p5010
sI5010
Vgorlilla
p5011
sI5011
Vgorrilla
p5012
sI5012
Vbump
p5013
sI5013
Vporch
p5014
sI5014
Vtrike
p5015
sI5015
Vtri
p5016
sI5016
Vcirlces
p5017
sI5017
Vbegetables
p5018
sI5018
Vallows
p5019
sI5019
Vtires
p5020
sI5020
Vvehicle's
p5021
sI5021
Vtyre
p5022
sI5022
Vvehicles
p5023
sI5023
Vshells
p5024
sI5024
Voxi
p5025
sI5025
Vclean
p5026
sI5026
Vdetergent
p5027
sI5027
Voxiclean
p5028
sI5028
Vspoonfull
p5029
sI5029
Vsomersault
p5030
sI5030
Vfrankenstein
p5031
sI5031
Vslumped
p5032
sI5032
Vdungeon
p5033
sI5033
Vpedastal
p5034
sI5034
Vlollipop
p5035
sI5035
Vpersian
p5036
sI5036
Vlollypop
p5037
sI5037
Vcandy
p5038
sI5038
Vsucker
p5039
sI5039
Vmas
p5040
sI5040
Varum
p5041
sI5041
Vshiitake
p5042
sI5042
Vperpendicular
p5043
sI5043
Vfig
p5044
sI5044
Vunidentified
p5045
sI5045
Vdate
p5046
sI5046
Vno
p5047
sI5047
Vsided
p5048
sI5048
Vx
p5049
sI5049
Vdiagram
p5050
sI5050
Vpolygon
p5051
sI5051
Vtouchscreen
p5052
sI5052
Vbarbeque
p5053
sI5053
Vpreserves
p5054
sI5054
Vgourmet
p5055
sI5055
Vmelts
p5056
sI5056
Vmelting
p5057
sI5057
Vsister
p5058
sI5058
Vtightly
p5059
sI5059
Vblown
p5060
sI5060
Vsevere
p5061
sI5061
Vstorm
p5062
sI5062
Vcauses
p5063
sI5063
Vsway
p5064
sI5064
Vrainstorm
p5065
sI5065
Vstrongly
p5066
sI5066
Vfirearm
p5067
sI5067
Vmm
p5068
sI5068
Vglock
p5069
sI5069
Vgood
p5070
sI5070
Vamount
p5071
sI5071
Vcontinuously
p5072
sI5072
Vcircled
p5073
sI5073
Vlouvered
p5074
sI5074
Vbra
p5075
sI5075
Vpana
p5076
sI5076
Vsalmons
p5077
sI5077
Vbobs
p5078
sI5078
Vabusing
p5079
sI5079
Vscrubbing
p5080
sI5080
Vscrubs
p5081
sI5081
Vscrubbed
p5082
sI5082
Vjerky
p5083
sI5083
Vsternly
p5084
sI5084
Vbruise
p5085
sI5085
Vmenaces
p5086
sI5086
Vlions
p5087
sI5087
Vwildlife
p5088
sI5088
Vnodding
p5089
sI5089
Vasleep
p5090
sI5090
Vdozing
p5091
sI5091
Vdrowsily
p5092
sI5092
Vfours
p5093
sI5093
Veaten
p5094
sI5094
Vstool
p5095
sI5095
Vshiso
p5096
sI5096
Vhare
p5097
sI5097
Vevades
p5098
sI5098
Vclutches
p5099
sI5099
Veagle
p5100
sI5100
Vdodging
p5101
sI5101
Vswoops
p5102
sI5102
Vcaptured
p5103
sI5103
Vacrobatics
p5104
sI5104
Vrc
p5105
sI5105
Vgliding
p5106
sI5106
Vangles
p5107
sI5107
Vincluding
p5108
sI5108
Vsoared
p5109
sI5109
Vplayhouse
p5110
sI5110
Vmidway
p5111
sI5111
Vkennel
p5112
sI5112
Vdoghouse
p5113
sI5113
Vscallop
p5114
sI5114
Vscallops
p5115
sI5115
Vslashes
p5116
sI5116
Vka
p5117
sI5117
Vswipe
p5118
sI5118
Vbottled
p5119
sI5119
Vcantalopue
p5120
sI5120
Vreleases
p5121
sI5121
Vcontrolled
p5122
sI5122
Vlaunches
p5123
sI5123
Vaeroplane
p5124
sI5124
Vwindy
p5125
sI5125
Vr
p5126
sI5126
Vc
p5127
sI5127
Vroughing
p5128
sI5128
Vslapping
p5129
sI5129
Vcome
p5130
sI5130
Vcolorfully
p5131
sI5131
Vdecorative
p5132
sI5132
Vmulticolored
p5133
sI5133
Vmaterial
p5134
sI5134
Vbake
p5135
sI5135
Vfrittata
p5136
sI5136
Vnewsstand
p5137
sI5137
Vmagazines
p5138
sI5138
Vleans
p5139
sI5139
Vbookshop
p5140
sI5140
Vcheckout
p5141
sI5141
Vjustin
p5142
sI5142
Vbieber
p5143
sI5143
Vvideos
p5144
sI5144
Vvideogame
p5145
sI5145
Vlowering
p5146
sI5146
Vcherry
p5147
sI5147
Vmeasures
p5148
sI5148
Vankle
p5149
sI5149
Vmeasure
p5150
sI5150
Vmeasured
p5151
sI5151
Vankles
p5152
sI5152
Vrinses
p5153
sI5153
Vwached
p5154
sI5154
Vrinsed
p5155
sI5155
Vaid
p5156
sI5156
Vbundt
p5157
sI5157
Vplated
p5158
sI5158
Vmargarine
p5159
sI5159
Vparatha
p5160
sI5160
Vpasting
p5161
sI5161
Vmargerine
p5162
sI5162
Vkevin
p5163
sI5163
Vspacey
p5164
sI5164
Vpresses
p5165
sI5165
Vshouts
p5166
sI5166
Vson
p5167
sI5167
Vpumping
p5168
sI5168
Vmom
p5169
sI5169
Vgoat
p5170
sI5170
Vbilly
p5171
sI5171
Vbleating
p5172
sI5172
Vunusual
p5173
sI5173
Vformal
p5174
sI5174
Vpacing
p5175
sI5175
Vhips
p5176
sI5176
Vpaces
p5177
sI5177
Vtale
p5178
sI5178
Vdogg's
p5179
sI5179
Vmeatn
p5180
sI5180
Vwillis
p5181
sI5181
Vdrys
p5182
sI5182
Vwarming
p5183
sI5183
Vmilla
p5184
sI5184
Vjovovich
p5185
sI5185
Vfifth
p5186
sI5186
Velement
p5187
sI5187
Vowner
p5188
sI5188
Vtrots
p5189
sI5189
Vexactly
p5190
sI5190
Vmaster
p5191
sI5191
Vstools
p5192
sI5192
Vhousing
p5193
sI5193
Vcavity
p5194
sI5194
Vbackpack
p5195
sI5195
Vdowned
p5196
sI5196
Vtrudges
p5197
sI5197
Vladle
p5198
sI5198
Vtransfer
p5199
sI5199
Vthai
p5200
sI5200
Vcarves
p5201
sI5201
Vescape
p5202
sI5202
Vgetaway
p5203
sI5203
Voutmaneuvering
p5204
sI5204
Vpatrol
p5205
sI5205
Vauthorities
p5206
sI5206
Vwalruses
p5207
sI5207
Vengulfed
p5208
sI5208
Vseals
p5209
sI5209
Vcayenne
p5210
sI5210
Vunbaked
p5211
sI5211
Vdolls
p5212
sI5212
Vgil
p5213
sI5213
Viceskates
p5214
sI5214
Vcoos
p5215
sI5215
Vgiggles
p5216
sI5216
Vgiggled
p5217
sI5217
Vmatter
p5218
sI5218
Vdig
p5219
sI5219
Vinvestigate
p5220
sI5220
Vgiraffe
p5221
sI5221
Vnuzzles
p5222
sI5222
Vgiraffes
p5223
sI5223
Vinteracts
p5224
sI5224
Vmama
p5225
sI5225
Vgrown
p5226
sI5226
Vsandwhich
p5227
sI5227
Vdwayne
p5228
sI5228
Vwade
p5229
sI5229
Vlayup
p5230
sI5230
Vstar
p5231
sI5231
Vcharges
p5232
sI5232
Vinmate
p5233
sI5233
Vhybrid
p5234
sI5234
Vrinspeed's
p5235
sI5235
Vsquba
p5236
sI5236
Vautomatically
p5237
sI5237
Vtravelling
p5238
sI5238
Vdriverless
p5239
sI5239
Vsizes
p5240
sI5240
Vvoilin
p5241
sI5241
Vsay
p5242
sI5242
Vfiretruck
p5243
sI5243
Vrepeating
p5244
sI5244
Vbanjo
p5245
sI5245
Vparts
p5246
sI5246
Vdivided
p5247
sI5247
Vcreases
p5248
sI5248
Vrips
p5249
sI5249
Vupholstered
p5250
sI5250
Vwackes
p5251
sI5251
Vcaressing
p5252
sI5252
Vsnuggled
p5253
sI5253
Veaster
p5254
sI5254
Vcancy
p5255
sI5255
Vsinks
p5256
sI5256
Vfloated
p5257
sI5257
Vdive
p5258
sI5258
Vswimmers
p5259
sI5259
Vsignal
p5260
sI5260
Vsixth
p5261
sI5261
Vdived
p5262
sI5262
Vbikini's
p5263
sI5263
Varguing
p5264
sI5264
Vreferee
p5265
sI5265
Vbrawl
p5266
sI5266
Vmisbehaving
p5267
sI5267
Vrestrain
p5268
sI5268
Vsideline
p5269
sI5269
Vathlete
p5270
sI5270
Vteammates
p5271
sI5271
Vplayer's
p5272
sI5272
Vprevented
p5273
sI5273
Vdangles
p5274
sI5274
Vsnake
p5275
sI5275
Vsnake's
p5276
sI5276
Vmice
p5277
sI5277
Vfeed
p5278
sI5278
Vtoasts
p5279
sI5279
Vwombat
p5280
sI5280
Vmarsupial
p5281
sI5281
Vstrolls
p5282
sI5282
Vwoodchuck
p5283
sI5283
Vseven
p5284
sI5284
Vcornering
p5285
sI5285
Vtrapping
p5286
sI5286
Vapproach
p5287
sI5287
Vfacet
p5288
sI5288
Vmussels
p5289
sI5289
Vsheff
p5290
sI5290
Vgeometry
p5291
sI5291
Vlesson
p5292
sI5292
Vlecturing
p5293
sI5293
Vclasses
p5294
sI5294
Vmaths
p5295
sI5295
Vsubject
p5296
sI5296
Vexplained
p5297
sI5297
Vcutsa
p5298
sI5298
Vsudden
p5299
sI5299
Vhalt
p5300
sI5300
Vflash
p5301
sI5301
Vadvertisement
p5302
sI5302
Vchorus
p5303
sI5303
Vaccompanied
p5304
sI5304
Vbarely
p5305
sI5305
Vpenalty
p5306
sI5306
Vcelebrates
p5307
sI5307
Vkeeper
p5308
sI5308
Vfocus
p5309
sI5309
Vritualistically
p5310
sI5310
Vaccompanying
p5311
sI5311
Vpreforming
p5312
sI5312
Vtraditonal
p5313
sI5313
Vticket
p5314
sI5314
Vcoupon
p5315
sI5315
Vdiscovers
p5316
sI5316
Vopining
p5317
sI5317
Vunboxes
p5318
sI5318
Vpacked
p5319
sI5319
Vplanting
p5320
sI5320
Vfarmers
p5321
sI5321
Vcrops
p5322
sI5322
Vpeasants
p5323
sI5323
Vfields
p5324
sI5324
Vtransplanting
p5325
sI5325
Vharvesting
p5326
sI5326
Vocena
p5327
sI5327
Vocean's
p5328
sI5328
Vhorizontal
p5329
sI5329
Vcupcake
p5330
sI5330
Vnibbles
p5331
sI5331
Vcupcakes
p5332
sI5332
Vtimer
p5333
sI5333
Vstraddling
p5334
sI5334
Vpiggy
p5335
sI5335
Vawakes
p5336
sI5336
Vnap
p5337
sI5337
Vundershirt
p5338
sI5338
Vvest
p5339
sI5339
Vnut
p5340
sI5340
Verect
p5341
sI5341
Vpropped
p5342
sI5342
Vcolliding
p5343
sI5343
Vdragged
p5344
sI5344
Vsunbather
p5345
sI5345
Vleaning
p5346
sI5346
Vjute
p5347
sI5347
Vfibers
p5348
sI5348
Vtwine
p5349
sI5349
Vbursts
p5350
sI5350
Vstarter
p5351
sI5351
Vburned
p5352
sI5352
Vmill
p5353
sI5353
Vsupporting
p5354
sI5354
Venough
p5355
sI5355
Vscampering
p5356
sI5356
Vrhythm
p5357
sI5357
Vbarn
p5358
sI5358
Venlosed
p5359
sI5359
Vcheesecloth
p5360
sI5360
Vmosture
p5361
sI5361
Vrag
p5362
sI5362
Vsquezzed
p5363
sI5363
Vshelled
p5364
sI5364
Vraccoons
p5365
sI5365
Vrummaging
p5366
sI5366
Vsquirrels
p5367
sI5367
Vhabitat
p5368
sI5368
Vracoons
p5369
sI5369
Vconfetti
p5370
sI5370
Vpetals
p5371
sI5371
Vdrizzled
p5372
sI5372
Vstrings
p5373
sI5373
Vsketches
p5374
sI5374
Vjohn
p5375
sI5375
Vdenver
p5376
sI5376
Vsongs
p5377
sI5377
Vbrownish
p5378
sI5378
Veyeshadow
p5379
sI5379
Vlids
p5380
sI5380
Vukulele
p5381
sI5381
Vhydrant
p5382
sI5382
Vslightly
p5383
sI5383
Vwalkign
p5384
sI5384
Vhunted
p5385
sI5385
Vcautiously
p5386
sI5386
Vjoy
p5387
sI5387
Vbays
p5388
sI5388
Vhunter
p5389
sI5389
Vcarcass
p5390
sI5390
Vfootballer
p5391
sI5391
Vaccordion
p5392
sI5392
Vkeyboards
p5393
sI5393
Vpianos
p5394
sI5394
Vorgan
p5395
sI5395
Vfigs
p5396
sI5396
Vsomene
p5397
sI5397
Vcaps
p5398
sI5398
Vsquishy
p5399
sI5399
Vvolleys
p5400
sI5400
Vpenguin
p5401
sI5401
Vknock
p5402
sI5402
Vtapioca
p5403
sI5403
Vedible
p5404
sI5404
Vhandling
p5405
sI5405
Vpresented
p5406
sI5406
Vlets
p5407
sI5407
Vloose
p5408
sI5408
Vpoll
p5409
sI5409
Vsergeant
p5410
sI5410
Vvoicing
p5411
sI5411
Vtroops
p5412
sI5412
Vcommander
p5413
sI5413
Vsargent
p5414
sI5414
Vrecruits
p5415
sI5415
Vbarracks
p5416
sI5416
Vmilitary
p5417
sI5417
Vsubordinates
p5418
sI5418
Vinspects
p5419
sI5419
Vnervous
p5420
sI5420
Vtroop
p5421
sI5421
Vbeds
p5422
sI5422
Vseargeant
p5423
sI5423
Vinspected
p5424
sI5424
Vbunks
p5425
sI5425
Vbunched
p5426
sI5426
Vmilky
p5427
sI5427
Vmush
p5428
sI5428
Vhen
p5429
sI5429
Vfleeing
p5430
sI5430
Vgeese
p5431
sI5431
Vbirds
p5432
sI5432
Vtogther
p5433
sI5433
Vaerobic
p5434
sI5434
Vjog
p5435
sI5435
Vfashion
p5436
sI5436
Vshaded
p5437
sI5437
Vdunking
p5438
sI5438
Vbasketballs
p5439
sI5439
Vhoops
p5440
sI5440
Vbaskets
p5441
sI5441
Vdunks
p5442
sI5442
Vdunked
p5443
sI5443
Vchoppoing
p5444
sI5444
Vshakira
p5445
sI5445
Vshakkira
p5446
sI5446
Vteenager
p5447
sI5447
Vclump
p5448
sI5448
Vedging
p5449
sI5449
Vnips
p5450
sI5450
Vclothing
p5451
sI5451
Vannouncer
p5452
sI5452
Vtugging
p5453
sI5453
Vshoes
p5454
sI5454
Vpawed
p5455
sI5455
Vzoo
p5456
sI5456
Vtormenting
p5457
sI5457
Vokra
p5458
sI5458
Vchile
p5459
sI5459
Vpea
p5460
sI5460
Vocra
p5461
sI5461
Vseashore
p5462
sI5462
Vbeachgoers
p5463
sI5463
Vwatchint
p5464
sI5464
Vscowling
p5465
sI5465
Vscreeching
p5466
sI5466
Vbutters
p5467
sI5467
Vbutton
p5468
sI5468
Vclosing
p5469
sI5469
Vplane's
p5470
sI5470
Vaircraft
p5471
sI5471
Vbolts
p5472
sI5472
Vairplane's
p5473
sI5473
Vstewardess
p5474
sI5474
Vshutting
p5475
sI5475
Vairline
p5476
sI5476
Vemployee
p5477
sI5477
Vworker
p5478
sI5478
Vexterior
p5479
sI5479
Vsteward
p5480
sI5480
Vcreamer
p5481
sI5481
Vyolks
p5482
sI5482
Vtidying
p5483
sI5483
Vpillow
p5484
sI5484
Vtiding
p5485
sI5485
Vsloppy
p5486
sI5486
Vflop
p5487
sI5487
Vflopped
p5488
sI5488
Vstyrofoam
p5489
sI5489
Vmeats
p5490
sI5490
Vzip
p5491
sI5491
Vlock
p5492
sI5492
Vflare
p5493
sI5493
Vtracers
p5494
sI5494
Villuminated
p5495
sI5495
Vblips
p5496
sI5496
Vtracer
p5497
sI5497
Vdusk
p5498
sI5498
Villuminate
p5499
sI5499
Vammunition
p5500
sI5500
Vexploding
p5501
sI5501
Vreactive
p5502
sI5502
Vemanates
p5503
sI5503
Vreception
p5504
sI5504
Vcheck
p5505
sI5505
Venter
p5506
sI5506
Vlobby
p5507
sI5507
Vbaggage
p5508
sI5508
Vtravel
p5509
sI5509
Vsuitcase
p5510
sI5510
Vtote
p5511
sI5511
Vtraveler
p5512
sI5512
Vtravelers
p5513
sI5513
Vregistration
p5514
sI5514
Vlongways
p5515
sI5515
Vmales
p5516
sI5516
Vstagecoach
p5517
sI5517
Vhorsemen
p5518
sI5518
Vcowboys
p5519
sI5519
Vponies
p5520
sI5520
Vmultitude
p5521
sI5521
Vpenguins
p5522
sI5522
Vcongregate
p5523
sI5523
Vheading
p5524
sI5524
Vpeguins
p5525
sI5525
Vgathered
p5526
sI5526
Vwater's
p5527
sI5527
Vhundreds
p5528
sI5528
Vrodeo
p5529
sI5529
Vegs
p5530
sI5530
Vknive
p5531
sI5531
Vhacks
p5532
sI5532
Velevator
p5533
sI5533
Vescelator
p5534
sI5534
Vstroller
p5535
sI5535
Vbay
p5536
sI5536
Vcarriage
p5537
sI5537
Vpram
p5538
sI5538
Vdomestic
p5539
sI5539
Vgallop
p5540
sI5540
Vgum
p5541
sI5541
Vbubblegum
p5542
sI5542
Vcommercial
p5543
sI5543
Vsouth
p5544
sI5544
Vafrican
p5545
sI5545
Vairways
p5546
sI5546
Vbanked
p5547
sI5547
Vsynthesizer
p5548
sI5548
Vindividual's
p5549
sI5549
Vrobe
p5550
sI5550
Vslced
p5551
sI5551
Vways
p5552
sI5552
Vhardboiled
p5553
sI5553
Vdrowsy
p5554
sI5554
Vtoddled
p5555
sI5555
Vaircrafts
p5556
sI5556
Vtelephones
p5557
sI5557
Vshooter
p5558
sI5558
Vgunman
p5559
sI5559
Vdistracted
p5560
sI5560
Vunrolling
p5561
sI5561
Vcoiled
p5562
sI5562
Vkithen
p5563
sI5563
Vroles
p5564
sI5564
Vunrolls
p5565
sI5565
Vknawing
p5566
sI5566
Vhip
p5567
sI5567
Vsuckling
p5568
sI5568
Vloud
p5569
sI5569
Vnoises
p5570
sI5570
Vfemale's
p5571
sI5571
Vshade
p5572
sI5572
Vpencilling
p5573
sI5573
Vburrata
p5574
sI5574
Vpastry
p5575
sI5575
Vpuma
p5576
sI5576
Vbooties
p5577
sI5577
Vslippers
p5578
sI5578
Vmittens
p5579
sI5579
Vboots
p5580
sI5580
Vdow
p5581
sI5581
Vteether
p5582
sI5582
Vshoestring
p5583
sI5583
Vpolaroid
p5584
sI5584
Vinstant
p5585
sI5585
Vnicks
p5586
sI5586
Vthinking
p5587
sI5587
Vsad
p5588
sI5588
Vwondering
p5589
sI5589
Vracer
p5590
sI5590
Vdirtbike
p5591
sI5591
Vpistols
p5592
sI5592
Vsuccession
p5593
sI5593
Vbalcony
p5594
sI5594
Vvase
p5595
sI5595
Vfather
p5596
sI5596
Vsaid
p5597
sI5597
Vyelled
p5598
sI5598
Valoud
p5599
sI5599
Vrooster
p5600
sI5600
Vcock
p5601
sI5601
Vsucking
p5602
sI5602
Vmother's
p5603
sI5603
Vmom's
p5604
sI5604
Vbrows
p5605
sI5605
Vdarkens
p5606
sI5606
Vcolour
p5607
sI5607
Veyelash
p5608
sI5608
Vthickener
p5609
sI5609
Vflattens
p5610
sI5610
Vfoured
p5611
sI5611
Vbusy
p5612
sI5612
Vskatboarded
p5613
sI5613
Vsniff
p5614
sI5614
Vjoins
p5615
sI5615
Vsimilar
p5616
sI5616
Valbino
p5617
sI5617
Vtigers
p5618
sI5618
Vmikes
p5619
sI5619
Vduet
p5620
sI5620
Vcarbine
p5621
sI5621
Vvodka
p5622
sI5622
Valcoholic
p5623
sI5623
Vbeverage
p5624
sI5624
Vmowed
p5625
sI5625
Vmover
p5626
sI5626
Vmows
p5627
sI5627
Vstumbles
p5628
sI5628
Vunharmed
p5629
sI5629
Vbeg
p5630
sI5630
Vdiffer
p5631
sI5631
Vsungalsses
p5632
sI5632
Vrefuses
p5633
sI5633
Vbucked
p5634
sI5634
Vcolt
p5635
sI5635
Vtwig
p5636
sI5636
Vsquirrel's
p5637
sI5637
Vcan't
p5638
sI5638
Vunstuck
p5639
sI5639
Vcomically
p5640
sI5640
Vnitrogen
p5641
sI5641
Vvapor
p5642
sI5642
Venvelopes
p5643
sI5643
Vsteam
p5644
sI5644
Vflows
p5645
sI5645
Vdiapered
p5646
sI5646
Vmimic
p5647
sI5647
Vpices
p5648
sI5648
Vfarm
p5649
sI5649
Vsemi
p5650
sI5650
Vautomatice
p5651
sI5651
Vdryer
p5652
sI5652
Vdrier
p5653
sI5653
Vwaterfall
p5654
sI5654
Vwaterfalls
p5655
sI5655
Vappliances
p5656
sI5656
Vfreezer
p5657
sI5657
Vsponge
p5658
sI5658
Vsoapy
p5659
sI5659
Vscrubber
p5660
sI5660
Vrefigerator
p5661
sI5661
Vfishing
p5662
sI5662
Vashore
p5663
sI5663
Vcathes
p5664
sI5664
Vbarehands
p5665
sI5665
Vbout
p5666
sI5666
Vfistfighting
p5667
sI5667
Vfistfight
p5668
sI5668
Vfirehat
p5669
sI5669
Vgoblet
p5670
sI5670
Vmidget
p5671
sI5671
Vsomebody
p5672
sI5672
Vfinishing
p5673
sI5673
Vsketch
p5674
sI5674
Vshifts
p5675
sI5675
Vcomparing
p5676
sI5676
Vsmells
p5677
sI5677
Vsmelled
p5678
sI5678
Vvomit
p5679
sI5679
Vdrool
p5680
sI5680
Vspit
p5681
sI5681
Vsmeone
p5682
sI5682
Vchef's
p5683
sI5683
Vspiking
p5684
sI5684
Vlugging
p5685
sI5685
Vjeff
p5686
sI5686
Vbeck
p5687
sI5687
Vquantity
p5688
sI5688
Vbilled
p5689
sI5689
Vharp
p5690
sI5690
Vlegionnaire
p5691
sI5691
Vbelieve
p5692
sI5692
Vimitates
p5693
sI5693
Vbeyonce's
p5694
sI5694
Vperformance
p5695
sI5695
Vbeyonce
p5696
sI5696
Vinset
p5697
sI5697
Vrapid
p5698
sI5698
Vdepicted
p5699
sI5699
Vextended
p5700
sI5700
Vsquat
p5701
sI5701
Vhigher
p5702
sI5702
Vacrobatic
p5703
sI5703
Vtwist
p5704
sI5704
Vgray
p5705
sI5705
Vgrayish
p5706
sI5706
Vbastng
p5707
sI5707
Voriental
p5708
sI5708
Vmoons
p5709
sI5709
Vportico
p5710
sI5710
Vsplash
p5711
sI5711
Vflushing
p5712
sI5712
Vtoilet
p5713
sI5713
Vcirculates
p5714
sI5714
Vwelch's
p5715
sI5715
Vmulti
p5716
sI5716
Vserve
p5717
sI5717
Vasphalt
p5718
sI5718
Vbarrier
p5719
sI5719
Vrhino
p5720
sI5720
Vrhinos
p5721
sI5721
Vrhinoceros
p5722
sI5722
Vcapped
p5723
sI5723
Vmt
p5724
sI5724
Vfuji
p5725
sI5725
Vcountryside
p5726
sI5726
Vbusting
p5727
sI5727
Vreed
p5728
sI5728
Vboating
p5729
sI5729
Vskiff
p5730
sI5730
Vwomen's
p5731
sI5731
Vantlers
p5732
sI5732
Vwife
p5733
sI5733
Vmounts
p5734
sI5734
Vrunway
p5735
sI5735
Vtaxied
p5736
sI5736
Vfrosting
p5737
sI5737
Vwhipping
p5738
sI5738
Vshado
p5739
sI5739
Veyelids
p5740
sI5740
Vcontest
p5741
sI5741
Vsaxaphone
p5742
sI5742
Vsax
p5743
sI5743
Vviolinists
p5744
sI5744
Vorchestra
p5745
sI5745
Vplaye
p5746
sI5746
Vviolins
p5747
sI5747
Vleast
p5748
sI5748
Vdressing
p5749
sI5749
Vdrizzling
p5750
sI5750
Vintsruments
p5751
sI5751
Voutfits
p5752
sI5752
Vtrough
p5753
sI5753
Vflags
p5754
sI5754
Vtumbled
p5755
sI5755
Veatables
p5756
sI5756
Vfarts
p5757
sI5757
Vwagon
p5758
sI5758
Vexamines
p5759
sI5759
Vinvestigating
p5760
sI5760
Vkilled
p5761
sI5761
Vtriumphant
p5762
sI5762
Vcostmetics
p5763
sI5763
Vturquoise
p5764
sI5764
Vshimmering
p5765
sI5765
Vapplicator
p5766
sI5766
Vhumming
p5767
sI5767
Vballerina
p5768
sI5768
Vballet
p5769
sI5769
Vtutu
p5770
sI5770
Vtoes
p5771
sI5771
Vcards
p5772
sI5772
Vdisappearing
p5773
sI5773
Vmassage
p5774
sI5774
Vpyrex
p5775
sI5775
Voatmeal
p5776
sI5776
Vlumpy
p5777
sI5777
Vnewspapers
p5778
sI5778
Vpupplies
p5779
sI5779
Vpups
p5780
sI5780
Vwrastle
p5781
sI5781
Vforecasts
p5782
sI5782
Vweather
p5783
sI5783
Vmap
p5784
sI5784
Vannouncing
p5785
sI5785
Vforecast
p5786
sI5786
Vincorrectly
p5787
sI5787
Vforecasting
p5788
sI5788
Vpresentation
p5789
sI5789
Vcurrents
p5790
sI5790
Vusa
p5791
sI5791
Vweatherman
p5792
sI5792
Vflubs
p5793
sI5793
Vpresenting
p5794
sI5794
Vsuspension
p5795
sI5795
Vsupport
p5796
sI5796
Vbeavers
p5797
sI5797
Vdomesticated
p5798
sI5798
Vbeaver's
p5799
sI5799
Vplaypen
p5800
sI5800
Vpopt
p5801
sI5801
Vfished
p5802
sI5802
Vouf
p5803
sI5803
Vblend
p5804
sI5804
Vchip
p5805
sI5805
Vdip
p5806
sI5806
Vdoughs
p5807
sI5807
Vsous
p5808
sI5808
Virate
p5809
sI5809
Vmewed
p5810
sI5810
Vknee
p5811
sI5811
Vded
p5812
sI5812
Vdragonfly
p5813
sI5813
Vemerging
p5814
sI5814
Vfailing
p5815
sI5815
Vtheatre
p5816
sI5816
Vyanni
p5817
sI5817
Vtricky
p5818
sI5818
Vmaneuvers
p5819
sI5819
Vbouillon
p5820
sI5820
Vbullion
p5821
sI5821
Vcubed
p5822
sI5822
Vboulon
p5823
sI5823
Vwand
p5824
sI5824
Vgigantic
p5825
sI5825
Vperformers
p5826
sI5826
Vmeatball
p5827
sI5827
Vpiercing
p5828
sI5828
Vsmacks
p5829
sI5829
Vspanks
p5830
sI5830
Vwhacks
p5831
sI5831
Vspanked
p5832
sI5832
Vhunched
p5833
sI5833
Vfishes
p5834
sI5834
Vsake
p5835
sI5835
Vmackerel
p5836
sI5836
Vgooey
p5837
sI5837
Vsquirts
p5838
sI5838
Vwrappers
p5839
sI5839
Vshepherd
p5840
sI5840
Vscaring
p5841
sI5841
Vkite
p5842
sI5842
Vtupperware
p5843
sI5843
Vsaute
p5844
sI5844
Vstire
p5845
sI5845
Vunfolding
p5846
sI5846
Vcoarsely
p5847
sI5847
Vcastle
p5848
sI5848
Vsandcastle
p5849
sI5849
Vreports
p5850
sI5850
Vgingers
p5851
sI5851
Vtoliet
p5852
sI5852
Vpooping
p5853
sI5853
Vrelieve
p5854
sI5854
Vtoilette
p5855
sI5855
Vwestern
p5856
sI5856
Vexcreting
p5857
sI5857
Vwaste
p5858
sI5858
Vbowel
p5859
sI5859
Vbarbecued
p5860
sI5860
Vbarbequed
p5861
sI5861
Vhores
p5862
sI5862
Vwritten
p5863
sI5863
Vyoutube
p5864
sI5864
Vlogo
p5865
sI5865
Vdecal
p5866
sI5866
Vthousands
p5867
sI5867
Vdescend
p5868
sI5868
Vswarm
p5869
sI5869
Vreleased
p5870
sI5870
Vballes
p5871
sI5871
Vrocket
p5872
sI5872
Vfirefox
p5873
sI5873
Vexpressing
p5874
sI5874
Vvegetarian
p5875
sI5875
Vhurriedly
p5876
sI5876
Vflights
p5877
sI5877
Vsamples
p5878
sI5878
Vcurves
p5879
sI5879
Vplow
p5880
sI5880
Voxen
p5881
sI5881
Vlivestock
p5882
sI5882
Vplaughing
p5883
sI5883
Vbulls
p5884
sI5884
Vox
p5885
sI5885
Vfarmer
p5886
sI5886
Vhockey
p5887
sI5887
Vgoalee
p5888
sI5888
Vdill
p5889
sI5889
Vsour
p5890
sI5890
Vdisgusted
p5891
sI5891
Vwrinkled
p5892
sI5892
Vmarble
p5893
sI5893
Vcountertop
p5894
sI5894
Vwobbles
p5895
sI5895
Vsquirming
p5896
sI5896
Vkicke
p5897
sI5897
Vslaloming
p5898
sI5898
Vholing
p5899
sI5899
Vsmallest
p5900
sI5900
Vanteater
p5901
sI5901
Vlawnmower
p5902
sI5902
Vswab
p5903
sI5903
Vlorie
p5904
sI5904
Vbomb
p5905
sI5905
Vlaunched
p5906
sI5906
Vsubmarine
p5907
sI5907
Vtorpedo
p5908
sI5908
Vlauching
p5909
sI5909
Vdiscards
p5910
sI5910
Vroping
p5911
sI5911
Vbalanced
p5912
sI5912
Vsnipes
p5913
sI5913
Vbak
p5914
sI5914
Vgauze
p5915
sI5915
Vinjections
p5916
sI5916
Vcalmly
p5917
sI5917
Vreceiving
p5918
sI5918
Vvaccinations
p5919
sI5919
Vnurse
p5920
sI5920
Vreceived
p5921
sI5921
Vinoculations
p5922
sI5922
Valternately
p5923
sI5923
Vlunch
p5924
sI5924
Visland
p5925
sI5925
Vshowered
p5926
sI5926
Vslicks
p5927
sI5927
Vromping
p5928
sI5928
Vget's
p5929
sI5929
Vhandle
p5930
sI5930
Vfoil
p5931
sI5931
Vloafs
p5932
sI5932
Vtinfoil
p5933
sI5933
Valuminium
p5934
sI5934
Vstaggering
p5935
sI5935
Vdrunken
p5936
sI5936
Vpiping
p5937
sI5937
Vcritter
p5938
sI5938
Vhamburgers
p5939
sI5939
Vburgers
p5940
sI5940
Vburger
p5941
sI5941
Vcafe
p5942
sI5942
Vbaseballs
p5943
sI5943
Vdividing
p5944
sI5944
Velastic
p5945
sI5945
Vbands
p5946
sI5946
Vmousse
p5947
sI5947
Vfastens
p5948
sI5948
Vhundred
p5949
sI5949
Vmeter
p5950
sI5950
Vaross
p5951
sI5951
Vfollow
p5952
sI5952
Vpom
p5953
sI5953
Vpoms
p5954
sI5954
Vpompoms
p5955
sI5955
Vwindows
p5956
sI5956
Vupwards
p5957
sI5957
Vcheerleaders
p5958
sI5958
Vpompons
p5959
sI5959
Vcheering
p5960
sI5960
Vbutts
p5961
sI5961
Varrest
p5962
sI5962
Vshouting
p5963
sI5963
Voffer
p5964
sI5964
Vhalved
p5965
sI5965
Vstay
p5966
sI5966
Vawake
p5967
sI5967
Vnearly
p5968
sI5968
Vtired
p5969
sI5969
Vtransporting
p5970
sI5970
Vpilot
p5971
sI5971
Vmid
p5972
sI5972
Vw
p5973
sI5973
Vdisembarks
p5974
sI5974
Vrawing
p5975
sI5975
Vcanoeing
p5976
sI5976
Vrows
p5977
sI5977
Vtranslucent
p5978
sI5978
Vpinkish
p5979
sI5979
Vpharmacy
p5980
sI5980
Vcough
p5981
sI5981
Vtissues
p5982
sI5982
Vshops
p5983
sI5983
Velephante
p5984
sI5984
Vshopped
p5985
sI5985
Vcriss
p5986
sI5986
Vangel
p5987
sI5987
Vparticipants
p5988
sI5988
Vpersuades
p5989
sI5989
Vjoin
p5990
sI5990
Vchris
p5991
sI5991
Vselects
p5992
sI5992
Vintroduces
p5993
sI5993
S'BOS'
p5994
sI5994
S'EOS'
p5995
s.